ccollections
defaultdict
p0
(c__builtin__
list
p1
tp2
Rp3
(S'befolkningen'
p4
S''
p5
tp6
(lp7
S'people'
p8
aS'population'
p9
as(S'vart'
p10
S'pn'
p11
tp12
(lp13
S'every'
p14
as(S'anv\xc3\xa4ndningen'
p15
g5
tp16
(lp17
S'usage'
p18
aS'employment'
p19
aS'use'
p20
as(S'intar'
p21
S'vb'
p22
tp23
(lp24
S'occupy'
p25
aS'take'
p26
aS'partake of'
p27
aS'eat'
p28
as(S'man'
p29
S'nn'
p30
tp31
(lp32
S'husband'
p33
aS'man'
p34
aS'mane'
p35
aS'person'
p36
as(S'r\xc3\xa4ttighet'
p37
S'nn'
p38
tp39
(lp40
S'right'
p41
as(S'sin'
p42
g5
tp43
(lp44
S'his'
p45
aS'one'
p46
aS'her'
p47
aS'its'
p48
aS'theirs'
p49
as(S'fru'
p50
S'nn'
p51
tp52
(lp53
S'wife'
p54
aS'Mrs.'
p55
as(S'f\xc3\xb6rb\xc3\xa4ttra'
p56
S'vb'
p57
tp58
(lp59
S'improve'
p60
as(S'm\xc3\xb6jlighet'
p61
g5
tp62
(lp63
S'possibility'
p64
as(S'se'
p65
g5
tp66
(lp67
S'notice'
p68
aS'watch'
p69
aS'see'
p70
aS'look'
p71
aS'view'
p72
aS'perceive'
p73
as(S'samverkar'
p74
S'vb'
p75
tp76
(lp77
S'collaborate'
p78
aS'cooperate'
p79
aS'work together'
p80
as(S'tack'
p81
S'nn'
p82
tp83
(lp84
S'thanks'
p85
as(S'rent'
p86
S'jj'
p87
tp88
(lp89
S'clean'
p90
aS'pure'
p91
as(S'n\xc3\xa4r'
p92
S'ab'
p93
tp94
(lp95
S'near'
p96
aS'when'
p97
as(S's\xc3\xa4kerst\xc3\xa4lla'
p98
g5
tp99
(lp100
S'guarantee'
p101
aS'secure'
p102
as(g4
S'nn'
p103
tp104
(lp105
g8
ag9
as(S'plats'
p106
g5
tp107
(lp108
S'place'
p109
aS'position'
p110
aS'job'
p111
aS'room'
p112
as(S'tillg\xc3\xa4ngliga'
p113
S'jj'
p114
tp115
(lp116
S'available'
p117
aS'accessible'
p118
as(S'f\xc3\xb6rs\xc3\xa4kringar'
p119
S'nn'
p120
tp121
(lp122
S'assurance'
p123
aS'insurance'
p124
as(S'skydda'
p125
S'vb'
p126
tp127
(lp128
S'preserve'
p129
aS'protect'
p130
aS'cover'
p131
aS'secure'
p132
aS'shelter'
p133
aS'defend'
p134
as(S'blev'
p135
S'vb'
p136
tp137
(lp138
S'become'
p139
aS'get'
p140
aS'be'
p141
aS'was'
p142
aS'got'
p143
aS'became'
p144
as(S'absolut'
p145
S'jj'
p146
tp147
(lp148
S'absolute'
p149
as(S'rent'
p150
g5
tp151
(lp152
S'absolutely'
p153
aS'completely'
p154
aS'quite'
p155
ag90
ag91
as(S'f\xc3\xb6rra'
p156
g5
tp157
(lp158
S'former'
p159
as(S'tredje'
p160
g5
tp161
(lp162
S'third'
p163
as(S'teknikerna'
p164
g5
tp165
(lp166
S'engineer'
p167
aS'technician'
p168
as(S'stimulera'
p169
g5
tp170
(lp171
S'stimulate'
p172
as(S'egna'
p173
g5
tp174
(lp175
S'odd'
p176
aS'peculiar'
p177
aS'strange'
p178
aS'queer'
p179
aS'own'
p180
as(S'konsumenterna'
p181
g5
tp182
(lp183
S'consumer'
p184
as(S'st\xc3\xb6dja'
p185
g5
tp186
(lp187
S'supporting'
p188
as(S'till'
p189
S'pp'
p190
tp191
(lp192
S'into'
p193
aS'until'
p194
aS'to'
p195
aS'of'
p196
aS'for'
p197
aS'as'
p198
aS'to'
p199
as(S'regel'
p200
S'nn'
p201
tp202
(lp203
S'bolt'
p204
aS'custom'
p205
aS'ule'
p206
as(S'internetf\xc3\xb6retag'
p207
g5
tp208
(lp209
S'internet companies'
p210
as(S'd\xc3\xa4ribland'
p211
S'jj'
p212
tp213
(lp214
S'including'
p215
as(S'bredband'
p216
g5
tp217
(lp218
S'broadband'
p219
as(S'avtal'
p220
g5
tp221
(lp222
S'agreement'
p223
aS'contract'
p224
as(S'avg\xc3\xb6rande'
p225
S'jj'
p226
tp227
(lp228
S'decisive'
p229
aS'conclusive'
p230
as(S'spela'
p231
g5
tp232
(lp233
S'play'
p234
as(S'e-handelns'
p235
g5
tp236
(lp237
S'E-Commerce'
p238
as(S'liksom'
p239
S'ab'
p240
tp241
(lp242
S'so to speak'
p243
aS'as it were'
p244
as(S'v\xc3\xa4rldsomsp\xc3\xa4nnande'
p245
S'nn'
p246
tp247
(lp248
S'global'
p249
as(S'konsumenternas'
p250
g5
tp251
(lp252
S'consumer'
p253
as(S'lagliga'
p254
g5
tp255
(lp256
S'legal'
p257
as(S'fr\xc3\xa4mst'
p258
g5
tp259
(lp260
S'in front'
p261
aS'first'
p262
aS'foremost'
p263
aS'primary'
p264
aS'mainly'
p265
aS'foremost'
p266
as(S'kulturf\xc3\xb6rem\xc3\xa5l'
p267
S'nn'
p268
tp269
(lp270
S'artifacts'
p271
aS'cultural'
p272
as(g106
S'nn'
p273
tp274
(lp275
g109
ag110
ag111
ag112
as(S'skyddet'
p276
g5
tp277
(lp278
S'defence'
p279
aS'security'
p280
aS'shelter'
p281
aS'protection'
p282
as(S'kunna'
p283
S'vb'
p284
tp285
(lp286
S'can'
p287
aS'know'
p288
as(S'handlingsplanen'
p289
g5
tp290
(lp291
S'Action Plan'
p292
as(S'harmonisera'
p293
S'vb'
p294
tp295
(lp296
S'harmonise'
p297
as(S'nu'
p298
g5
tp299
(lp300
S'now'
p301
as(S'gemenskapsr\xc3\xa4tten'
p302
g5
tp303
(lp304
S'community law'
p305
as(S'vad'
p306
S'ab'
p307
tp308
(lp309
S'how'
p310
as(S'sina'
p311
S'vb'
p312
tp313
(lp314
S'run short'
p315
aS'become (run) dry'
p316
aS'dry up'
p317
as(S'data'
p318
g5
tp319
(lp320
S'computer'
p321
aS'data'
p322
as(S'huvud'
p323
g5
tp324
(lp325
S'head'
p326
as(S'\xc3\xb6nskem\xc3\xa5l'
p327
S'nn'
p328
tp329
(lp330
S'desire'
p331
aS'wish'
p332
as(S'v\xc3\xa4rldens'
p333
g5
tp334
(lp335
S"the world's"
p336
as(S'registrering'
p337
S'nn'
p338
tp339
(lp340
S'registration'
p341
as(S'ha'
p342
g5
tp343
(lp344
S'have'
p345
aS'possess'
p346
aS'be provided with'
p347
as(S'utnyttja'
p348
S'vb'
p349
tp350
(lp351
S'make use of'
p352
as(S'\xc3\xa4r'
p353
S'vb'
p354
tp355
(lp356
S'am'
p357
aS'are'
p358
aS'is'
p359
as(g245
g5
tp360
(lp361
g249
as(S'stort'
p362
g5
tp363
(lp364
S'large'
p365
aS'big'
p366
aS'great'
p367
as(S'inre'
p368
g5
tp369
(lp370
S'inner'
p371
aS'interior'
p372
aS'internal'
p373
aS'inside'
p374
as(S'konsument'
p375
g5
tp376
(lp377
S'consumer'
p378
as(g200
g5
tp379
(lp380
g204
ag205
ag206
as(S'intresserade'
p381
S'vb'
p382
tp383
(lp384
S'interest'
p385
as(S'om'
p386
g5
tp387
(lp388
S'about'
p389
aS'again'
p390
aS're-'
p391
aS'round'
p392
aS'by'
p393
aS'of'
p394
aS'about'
p395
aS'round'
p396
aS'if'
p397
as(S'exempelvis'
p398
S'ab'
p399
tp400
(lp401
S'for example'
p402
as(S'dialog'
p403
S'nn'
p404
tp405
(lp406
S'(dialog [US])'
p407
aS'dialogue'
p408
as(S'utan'
p409
S'pp'
p410
tp411
(lp412
S'without'
p413
as(S'system'
p414
S'nn'
p415
tp416
(lp417
S'system'
p418
as(S'tj\xc3\xa4nster'
p419
g5
tp420
(lp421
S'job'
p422
aS'post'
p423
aS'service'
p424
aS'duty'
p425
aS'favour'
p426
as(S'distansf\xc3\xb6rs\xc3\xa4ljning'
p427
S'nn'
p428
tp429
(lp430
S'distance sales'
p431
as(S'har'
p432
g5
tp433
(lp434
S'have'
p435
aS'possess'
p436
aS'be provided with'
p437
as(S'st\xc3\xa4rka'
p438
g5
tp439
(lp440
S'starch'
p441
aS'strengthen'
p442
as(S'f\xc3\xb6rdelar'
p443
S'vb'
p444
tp445
(lp446
S'divide'
p447
as(S'utvecklas'
p448
S'vb'
p449
tp450
(lp451
S'grow'
p452
aS'develop'
p453
as(S'internetleverant\xc3\xb6rernas'
p454
S'ab'
p455
tp456
(lp457
S'Internet Service Providers'
p458
as(S'vid'
p459
S'jj'
p460
tp461
(lp462
S'wide'
p463
as(S'allm\xc3\xa4nt'
p464
S'jj'
p465
tp466
(lp467
S'common'
p468
aS'general'
p469
aS'public'
p470
aS'vague'
p471
aS'generally'
p472
as(S'antal'
p473
g5
tp474
(lp475
S'quantity'
p476
aS'number'
p477
as(g113
g5
tp478
(lp479
g117
ag118
as(S'privatkopieringen'
p480
S'nn'
p481
tp482
(lp483
S'private copying'
p484
as(S'produkter'
p485
S'nn'
p486
tp487
(lp488
S'product'
p489
as(S'e-handla'
p490
S'vb'
p491
tp492
(lp493
S'engage in e-commerce'
p494
as(S'att'
p495
S'kn'
p496
tp497
(lp498
S'that'
p499
as(S'sammantr\xc3\xa4desperioden'
p500
S'nn'
p501
tp502
(lp503
S'session'
p504
as(S'\xc3\xa4ven'
p505
S'ab'
p506
tp507
(lp508
S'too'
p509
aS'even'
p510
aS'also'
p511
as(S'adekvata'
p512
S'jj'
p513
tp514
(lp515
S'adequate'
p516
as(g438
S'vb'
p517
tp518
(lp519
g441
ag442
as(S'p\xc3\xa5'
p520
S'ab'
p521
tp522
(lp523
S'at etc.'
p524
as(S'f\xc3\xb6rnuftig'
p525
g5
tp526
(lp527
S'reasonable'
p528
aS'sensible'
p529
as(S'tydligt'
p530
S'jj'
p531
tp532
(lp533
S'clear'
p534
aS'legible'
p535
aS'clearly'
p536
as(S'h\xc3\xa4r'
p537
g5
tp538
(lp539
S'army'
p540
aS'host'
p541
aS'here'
p542
as(S'g\xc3\xb6ra'
p543
S'vb'
p544
tp545
(lp546
S'cause'
p547
aS'make'
p548
aS'do'
p549
aS'make'
p550
as(S'denna'
p551
S'pn'
p552
tp553
(lp554
S'this'
p555
as(S'ocks\xc3\xa5'
p556
g5
tp557
(lp558
S'too'
p559
aS'also'
p560
as(S'satsa'
p561
g5
tp562
(lp563
S'stake'
p564
aS'back'
p565
aS'venture'
p566
aS'bet on'
p567
as(S'f\xc3\xa5'
p568
S'vb'
p569
tp570
(lp571
S'have'
p572
aS'may'
p573
aS'receive'
p574
aS'get'
p575
as(S'unionens'
p576
S'nn'
p577
tp578
(lp579
S'union'
p580
as(g160
S'rg'
p581
tp582
(lp583
g163
as(S'den'
p584
g5
tp585
(lp586
S'it'
p587
aS'he'
p588
aS'she'
p589
aS'portable computer'
p590
aS'laptop'
p591
aS'that'
p592
aS'the'
p593
aS'that'
p594
as(S'vilja'
p595
g5
tp596
(lp597
S'want'
p598
aS'will'
p599
as(S'\xc3\xa4ndringsf\xc3\xb6rslag'
p600
S'nn'
p601
tp602
(lp603
S'amendment proposal'
p604
as(S'dataskydd'
p605
S'nn'
p606
tp607
(lp608
S'data protection'
p609
as(g61
S'nn'
p610
tp611
(lp612
g64
as(S'utlandsbaserade'
p613
S'vb'
p614
tp615
(lp616
S'foreign-based'
p617
as(S'konsumentavtal'
p618
g5
tp619
(lp620
S'consumer contracts'
p621
as(S'f\xc3\xb6rsvaras'
p622
S'vb'
p623
tp624
(lp625
S'defended'
p626
as(S'regler'
p627
g5
tp628
(lp629
S'custom'
p630
aS'rule'
p631
as(S'strategi'
p632
g5
tp633
(lp634
S'strategy'
p635
as(S'vetenskapliga'
p636
g5
tp637
(lp638
S'scientific'
p639
as(S'vill'
p640
S'vb'
p641
tp642
(lp643
S'want'
p644
as(S'konsumentskydd'
p645
S'nn'
p646
tp647
(lp648
S'consumer protection'
p649
as(S'detta'
p650
g5
tp651
(lp652
S'this'
p653
as(S'komma'
p654
S'nn'
p655
tp656
(lp657
S'comma'
p658
as(S'typ'
p659
S'nn'
p660
tp661
(lp662
S'type'
p663
as(g618
S'nn'
p664
tp665
(lp666
g621
as(S'enligt'
p667
S'pp'
p668
tp669
(lp670
S'according to'
p671
as(g125
g5
tp672
(lp673
g129
ag130
ag131
ag132
ag133
ag134
as(g353
g5
tp674
(lp675
g357
ag358
ag359
as(S'eu'
p676
S'pm'
p677
tp678
(lp679
S'EU'
p680
as(S'vad'
p681
S'pn'
p682
tp683
(lp684
S'what'
p685
as(S'halkat'
p686
S'vb'
p687
tp688
(lp689
S'slip'
p690
as(S'garantera'
p691
g5
tp692
(lp693
S'guarantee'
p694
as(S'kan'
p695
S'vb'
p696
tp697
(lp698
S'can'
p699
aS'can'
p700
aS'know'
p701
as(S'upp'
p702
g5
tp703
(lp704
S'open'
p705
aS'up'
p706
as(S'ska'
p707
S'vb'
p708
tp709
(lp710
S'have to'
p711
aS'shall'
p712
aS'must'
p713
aS'shall'
p714
aS'will'
p715
as(S'anv\xc3\xa4nder'
p716
S'vb'
p717
tp718
(lp719
S'employ'
p720
aS'use'
p721
aS'carry'
p722
aS'utilize'
p723
aS'wear'
p724
as(S'medlemsstater'
p725
S'nn'
p726
tp727
(lp728
S'member'
p729
as(S'avg\xc3\xb6rande'
p730
g5
tp731
(lp732
S'conclusion'
p733
aS'settlement'
p734
aS'decision'
p735
ag229
ag230
as(S'f\xc3\xb6r'
p736
S'pp'
p737
tp738
(lp739
S'by'
p740
aS'for'
p741
aS'of'
p742
aS'to'
p743
as(S'm\xc3\xb6jligheter'
p744
g5
tp745
(lp746
S'possibility'
p747
as(S'anser'
p748
g5
tp749
(lp750
S'consider'
p751
aS'regard'
p752
as(S'speciella'
p753
g5
tp754
(lp755
S'special'
p756
as(S'konsumentlagstiftningen'
p757
g5
tp758
(lp759
S'consumer legislation'
p760
as(S'anv\xc3\xa4ndarna'
p761
g5
tp762
(lp763
S'users'
p764
as(S'ansvar'
p765
g5
tp766
(lp767
S'responsibility'
p768
aS'liability'
p769
as(S'internetbaserade'
p770
g5
tp771
(lp772
S'internet-based'
p773
as(g185
S'vb'
p774
tp775
(lp776
g188
as(S'att'
p777
S'ie'
p778
tp779
(lp780
S'to'
p781
as(g327
g5
tp782
(lp783
g331
ag332
as(S'europa'
p784
S'pm'
p785
tp786
(lp787
S'europe'
p788
as(S'\xc3\xa4n'
p789
S'ab'
p790
tp791
(lp792
S'yet'
p793
aS'still'
p794
aS'ever'
p795
as(S'eftersom'
p796
S'kn'
p797
tp798
(lp799
S'as'
p800
aS'because'
p801
aS'seeing that'
p802
aS'since'
p803
as(S'n\xc3\xb6dv\xc3\xa4ndig'
p804
S'jj'
p805
tp806
(lp807
S'necessary'
p808
as(S'skall'
p809
g5
tp810
(lp811
S'barking'
p812
aS'bark'
p813
aS'will'
p814
aS'shall'
p815
aS'must'
p816
aS'have to'
p817
as(S'dynamiska'
p818
g5
tp819
(lp820
S'dynamic'
p821
as(g796
g5
tp822
(lp823
g800
ag801
ag802
ag803
as(S'v\xc3\xa4rld'
p824
S'nn'
p825
tp826
(lp827
S'world'
p828
as(S'f\xc3\xb6renkla'
p829
S'vb'
p830
tp831
(lp832
S'simplify'
p833
as(g254
S'jj'
p834
tp835
(lp836
g257
as(S'visst'
p837
S'ab'
p838
tp839
(lp840
S'certainly'
p841
aS'probably'
p842
as(S'sina'
p843
g5
tp844
(lp845
S'his'
p846
aS'one'
p847
aS'her'
p848
aS'its'
p849
aS'theirs'
p850
ag315
ag316
ag317
as(S'handel'
p851
g5
tp852
(lp853
S'commerce'
p854
aS'trade'
p855
aS'business'
p856
aS'shop'
p857
as(S's\xc3\xa4tt'
p858
S'nn'
p859
tp860
(lp861
S'manner'
p862
aS'way'
p863
as(S'e-handelsm\xc3\xb6jligheterna'
p864
S'nn'
p865
tp866
(lp867
S'E-Commerce Opportunities'
p868
as(S'tillg\xc3\xa5ng'
p869
S'nn'
p870
tp871
(lp872
S'access'
p873
aS'supply'
p874
aS'asset'
p875
as(S'dessa'
p876
g552
tp877
(lp878
S'these'
p879
aS'this'
p880
as(S'm\xc3\xa5ste'
p881
g5
tp882
(lp883
S'must'
p884
aS'must'
p885
as(S'balans'
p886
S'nn'
p887
tp888
(lp889
S'balance'
p890
as(S'lista'
p891
S'nn'
p892
tp893
(lp894
S'list'
p895
as(S'n\xc3\xa4tet'
p896
g5
tp897
(lp898
S'net'
p899
as(g858
g5
tp900
(lp901
g862
aS'place'
p902
aS'put'
p903
aS'set'
p904
aS'plant'
p905
aS'compose'
p906
aS'set'
p907
ag863
as(S'utanf\xc3\xb6r'
p908
S'ab'
p909
tp910
(lp911
S'outside'
p912
as(S'inte'
p913
g455
tp914
(lp915
S'not'
p916
as(g530
g5
tp917
(lp918
g534
ag535
ag536
as(S'bara'
p919
S'kn'
p920
tp921
(lp922
S'if'
p923
as(S'avancera'
p924
S'vb'
p925
tp926
(lp927
S'advance'
p928
as(S'visst'
p929
g5
tp930
(lp931
S'certain'
p932
ag841
ag842
as(S'vart'
p933
S'vb'
p934
tp935
(lp936
S'was'
p937
as(S'och'
p938
g5
tp939
(lp940
S'and'
p941
as(S'elektroniska'
p942
g5
tp943
(lp944
S'electronic'
p945
as(S'dem'
p946
g5
tp947
(lp948
S'them'
p949
as(S'f\xc3\xb6rvisso'
p950
g5
tp951
(lp952
S'assuredly'
p953
aS'certainly'
p954
as(S'genomf\xc3\xb6randebest\xc3\xa4mmelser'
p955
S'pp'
p956
tp957
(lp958
S'implementing'
p959
as(S'gr\xc3\xa4ns\xc3\xb6verskridande'
p960
S'vb'
p961
tp962
(lp963
S'crossborder'
p964
as(S'huvuddokumentet'
p965
S'nn'
p966
tp967
(lp968
S'main document'
p969
as(S'med'
p970
S'nn'
p971
tp972
(lp973
S'runner'
p974
as(g691
S'vb'
p975
tp976
(lp977
g694
as(S'vad'
p978
g5
tp979
(lp980
S'appeal'
p981
aS'bet'
p982
ag310
ag685
as(S'm\xc3\xb6jlig'
p983
g5
tp984
(lp985
S'possible'
p986
as(S's\xc3\xa5dant'
p987
S'pn'
p988
tp989
(lp990
S'such'
p991
as(S'med'
p992
S'ab'
p993
tp994
(lp995
S'too'
p996
aS'with'
p997
as(g765
S'nn'
p998
tp999
(lp1000
g768
ag769
as(S'efter'
p1001
S'ab'
p1002
tp1003
(lp1004
S'after'
p1005
aS'next'
p1006
aS'following'
p1007
as(g65
S'vb'
p1008
tp1009
(lp1010
g68
ag69
ag70
ag71
ag72
ag73
as(g748
S'vb'
p1011
tp1012
(lp1013
g751
ag752
as(g81
g5
tp1014
(lp1015
g85
as(g500
g5
tp1016
(lp1017
g504
as(S'utan'
p1018
S'ab'
p1019
tp1020
(lp1021
g5
as(g318
S'nn'
p1022
tp1023
(lp1024
g321
ag322
as(S'direktiv'
p1025
S'nn'
p1026
tp1027
(lp1028
S'directive'
p1029
aS'instruction'
p1030
as(g505
g5
tp1031
(lp1032
g509
ag510
ag511
as(S'tv\xc3\xa5'
p1033
S'vb'
p1034
tp1035
(lp1036
S'wash'
p1037
as(S'som'
p1038
g5
tp1039
(lp1040
S'as'
p1041
aS'who'
p1042
aS'whom'
p1043
as(S'aff\xc3\xa4rsstrukturerna'
p1044
g5
tp1045
(lp1046
S'commercial structures'
p1047
as(S'strasbourg'
p1048
g5
tp1049
(lp1050
S'strasbourg'
p1051
as(g725
g5
tp1052
(lp1053
g729
as(S'tar'
p1054
S'vb'
p1055
tp1056
(lp1057
S'take'
p1058
aS'bring'
p1059
aS'grab'
p1060
aS'touch'
p1061
as(S'av'
p1062
g5
tp1063
(lp1064
S'at'
p1065
aS'by'
p1066
aS'of'
p1067
aS'off'
p1068
aS'down'
p1069
as(S'e-handeln'
p1070
g5
tp1071
(lp1072
S'E-Commerce'
p1073
as(S'oss'
p1074
S'pn'
p1075
tp1076
(lp1077
S'us'
p1078
aS'we'
p1079
as(g98
S'vb'
p1080
tp1081
(lp1082
g101
ag102
as(S'fr\xc3\xa5gan'
p1083
g5
tp1084
(lp1085
S'question'
p1086
aS'matter'
p1087
as(g386
S'ab'
p1088
tp1089
(lp1090
g389
ag390
ag391
ag392
as(g42
S'pn'
p1091
tp1092
(lp1093
g45
ag46
ag47
ag48
ag49
as(S'betalningsf\xc3\xb6rfaranden'
p1094
S'jj'
p1095
tp1096
(lp1097
S'payment procedures'
p1098
as(S'einitiativet'
p1099
g865
tp1100
(lp1101
S'e-initiative'
p1102
as(S'vara'
p1103
S'nn'
p1104
tp1105
(lp1106
S'goods'
p1107
aS'commodity'
p1108
as(S'inom'
p1109
S'pp'
p1110
tp1111
(lp1112
S'in'
p1113
aS'within'
p1114
aS'within'
p1115
as(S'\xc3\xb6ver'
p1116
S'pp'
p1117
tp1118
(lp1119
S'about'
p1120
aS'over'
p1121
aS'across'
p1122
aS'by way of'
p1123
aS'above'
p1124
as(g169
S'vb'
p1125
tp1126
(lp1127
g172
as(g622
g5
tp1128
(lp1129
g626
as(S'via'
p1130
S'pp'
p1131
tp1132
(lp1133
S'via'
p1134
as(S'ledamot'
p1135
g5
tp1136
(lp1137
S'member'
p1138
as(S'\xc3\xa5ret'
p1139
S'nn'
p1140
tp1141
(lp1142
S'year'
p1143
as(S'\xc3\xa5r'
p1144
g5
tp1145
(lp1146
S'year'
p1147
as(S'framtiden'
p1148
g5
tp1149
(lp1150
S'future'
p1151
as(S'onlinelagring'
p1152
g5
tp1153
(lp1154
S'online storage nn'
p1155
as(g640
g5
tp1156
(lp1157
g644
as(S's\xc3\xa4kras'
p1158
g5
tp1159
(lp1160
S'secured'
p1161
as(S'finnas'
p1162
g5
tp1163
(lp1164
S'am'
p1165
aS'is'
p1166
aS'are'
p1167
as(g164
S'nn'
p1168
tp1169
(lp1170
g167
ag168
as(g258
S'jj'
p1171
tp1172
(lp1173
g261
ag262
ag263
ag264
as(S'm\xc3\xa5ste'
p1174
S'vb'
p1175
tp1176
(lp1177
g885
as(S'\xc3\xb6nskem\xc3\xa5len'
p1178
S'nn'
p1179
tp1180
(lp1181
S'desire'
p1182
aS'wish'
p1183
as(S'med'
p1184
S'pp'
p1185
tp1186
(lp1187
S'for'
p1188
aS'about'
p1189
aS'with'
p1190
as(S'p\xc3\xa5verka'
p1191
g5
tp1192
(lp1193
S'influence'
p1194
aS'affect'
p1195
as(S'ni'
p1196
S'pn'
p1197
tp1198
(lp1199
S'you'
p1200
as(S's\xc3\xa4tt'
p1201
S'vb'
p1202
tp1203
(lp1204
g902
ag903
ag904
ag905
ag906
ag907
as(S'vilket'
p1205
g5
tp1206
(lp1207
S'what'
p1208
aS'which'
p1209
aS'who'
p1210
as(S'chans'
p1211
S'nn'
p1212
tp1213
(lp1214
S'chance'
p1215
as(S'r\xc3\xa4ttigheter'
p1216
S'nn'
p1217
tp1218
(lp1219
S'right'
p1220
as(S'f\xc3\xb6r'
p1221
S'vb'
p1222
tp1223
(lp1224
S'lead'
p1225
aS'conduct'
p1226
aS'transport'
p1227
as(S'handelssystem'
p1228
g5
tp1229
(lp1230
S'trading'
p1231
as(g896
S'nn'
p1232
tp1233
(lp1234
g899
as(g10
g5
tp1235
(lp1236
g14
ag937
aS'where'
p1237
aS'where'
p1238
as(S'\xc3\xb6ver'
p1239
S'ab'
p1240
tp1241
(lp1242
S'over'
p1243
aS'more than'
p1244
aS'over'
p1245
aS'past'
p1246
as(S'systemet'
p1247
S'nn'
p1248
tp1249
(lp1250
S'system'
p1251
as(S'v\xc3\xa4xa'
p1252
S'vb'
p1253
tp1254
(lp1255
S'grow'
p1256
as(g1205
S'pn'
p1257
tp1258
(lp1259
g1208
ag1209
ag1210
as(S'f\xc3\xa5'
p1260
g5
tp1261
(lp1262
S'few'
p1263
ag572
ag573
ag574
ag575
as(S'snabbare'
p1264
S'nn'
p1265
tp1266
(lp1267
S'faster'
p1268
as(S'fortbildningsprogram'
p1269
g5
tp1270
(lp1271
S'training programs'
p1272
as(S'de'
p1273
S'pn'
p1274
tp1275
(lp1276
S'it'
p1277
aS'he'
p1278
aS'she'
p1279
aS'that'
p1280
as(S'direktivet'
p1281
g5
tp1282
(lp1283
S'directive'
p1284
aS'instruction'
p1285
as(S'fungera'
p1286
S'vb'
p1287
tp1288
(lp1289
S'act'
p1290
aS'serve as'
p1291
aS'function'
p1292
aS'work'
p1293
as(S'vart'
p1294
S'nn'
p1295
tp1296
(lp1297
g1238
as(S'standardisera'
p1298
g5
tp1299
(lp1300
S'standardize'
p1301
as(S'mina'
p1302
S'nn'
p1303
tp1304
(lp1305
S'mine'
p1306
as(g50
g5
tp1307
(lp1308
g54
ag55
as(g843
S'pn'
p1309
tp1310
(lp1311
g846
ag847
ag848
ag849
ag850
as(S'\xc3\xb6verhuvudtaget'
p1312
g5
tp1313
(lp1314
S'on the whole'
p1315
aS'At all'
p1316
as(S'f\xc3\xb6rst\xc3\xa4rka'
p1317
g5
tp1318
(lp1319
S'reinforce'
p1320
aS'strengthen'
p1321
as(g595
S'vb'
p1322
tp1323
(lp1324
g598
as(g613
g5
tp1325
(lp1326
g617
as(g650
S'pn'
p1327
tp1328
(lp1329
g653
as(S's\xc3\xa5som'
p1330
g5
tp1331
(lp1332
S'as'
p1333
as(S'en'
p1334
S'nn'
p1335
tp1336
(lp1337
S'action'
p1338
aS'juniper'
p1339
as(S'f\xc3\xb6retag'
p1340
S'nn'
p1341
tp1342
(lp1343
S'business'
p1344
aS'enterprise'
p1345
aS'undertaking'
p1346
aS'company'
p1347
as(g987
g5
tp1348
(lp1349
g991
as(S'tydliga'
p1350
g5
tp1351
(lp1352
S'clear'
p1353
aS'legible'
p1354
as(g1269
S'nn'
p1355
tp1356
(lp1357
g1272
as(S'efter'
p1358
S'kn'
p1359
tp1360
(lp1361
S'after'
p1362
as(S'fr\xc3\xa5n'
p1363
S'pp'
p1364
tp1365
(lp1366
S'from'
p1367
as(g1358
g5
tp1368
(lp1369
g1362
aS'after'
p1370
aS'later'
p1371
ag1005
ag1006
ag1007
aS'for'
p1372
as(S'ett'
p1373
g5
tp1374
(lp1375
S'a'
p1376
aS'an'
p1377
aS'one'
p1378
as(S'anges'
p1379
g5
tp1380
(lp1381
S'specified'
p1382
as(S'en'
p1383
S'rg'
p1384
tp1385
(lp1386
S'one'
p1387
as(g333
S'nn'
p1388
tp1389
(lp1390
g336
as(g1099
g5
tp1391
(lp1392
g1102
as(g1260
S'pn'
p1393
tp1394
(lp1395
g1263
as(g695
g5
tp1396
(lp1397
g699
ag700
ag701
as(S'granskning'
p1398
g5
tp1399
(lp1400
S'scrutiny'
p1401
aS'survey'
p1402
as(S'skatteinstrumenten'
p1403
S'nn'
p1404
tp1405
(lp1406
S'tax instruments'
p1407
as(g757
S'nn'
p1408
tp1409
(lp1410
g760
as(g323
S'nn'
p1411
tp1412
(lp1413
g326
as(S'kommissionen'
p1414
S'nn'
p1415
tp1416
(lp1417
S'commission'
p1418
as(g1228
S'nn'
p1419
tp1420
(lp1421
g1231
as(S'e-handelsdirektivet'
p1422
g5
tp1423
(lp1424
S'E-Commerce Directive'
p1425
as(S'vid'
p1426
g5
tp1427
(lp1428
S'at'
p1429
aS'at'
p1430
aS'about'
p1431
aS'to'
p1432
ag463
as(S'erk\xc3\xa4nnande'
p1433
g5
tp1434
(lp1435
S'acknowledgement'
p1436
aS'recognition'
p1437
aS'admission'
p1438
aS'confession'
p1439
as(g551
g5
tp1440
(lp1441
g555
as(S'den'
p1442
S'nn'
p1443
tp1444
(lp1445
g590
ag591
as(S'\xc3\xa5tg\xc3\xa4rder'
p1446
g5
tp1447
(lp1448
S'measure'
p1449
as(g1422
S'nn'
p1450
tp1451
(lp1452
g1425
as(S'b\xc3\xa4ttre'
p1453
S'jj'
p1454
tp1455
(lp1456
S'good'
p1457
aS'excellent'
p1458
aS'fine'
p1459
aS'better'
p1460
as(S'ihop'
p1461
S'ab'
p1462
tp1463
(lp1464
S'together'
p1465
as(S'garantier'
p1466
g5
tp1467
(lp1468
S'warranty'
p1469
aS'guarantee'
p1470
as(g924
g5
tp1471
(lp1472
g928
as(g702
S'ab'
p1473
tp1474
(lp1475
g705
ag706
as(g525
S'jj'
p1476
tp1477
(lp1478
g528
ag529
as(S'det'
p1479
S'article'
p1480
tp1481
(lp1482
S'the'
p1483
aS'that'
p1484
as(S'alla'
p1485
g5
tp1486
(lp1487
S'all'
p1488
aS'everyone'
p1489
aS'all'
p1490
aS'everybody'
p1491
as(S'fr\xc3\xa5ga'
p1492
S'nn'
p1493
tp1494
(lp1495
S'question'
p1496
aS'matter'
p1497
as(S'tv\xc3\xa5'
p1498
S'rg'
p1499
tp1500
(lp1501
S'two'
p1502
as(S'f\xc3\xb6r'
p1503
g5
tp1504
(lp1505
S'because'
p1506
ag740
ag741
ag742
ag743
aS'in front of'
p1507
aS'too'
p1508
ag1225
ag1226
ag1227
as(g1403
g5
tp1509
(lp1510
g1407
as(g368
S'jj'
p1511
tp1512
(lp1513
g371
ag372
ag373
as(g29
g5
tp1514
(lp1515
g33
ag34
ag35
ag36
aS'one'
p1516
as(g1191
S'vb'
p1517
tp1518
(lp1519
g1194
ag1195
as(g1054
g5
tp1520
(lp1521
g1058
ag1059
ag1060
ag1061
as(S'g\xc3\xa4ller'
p1522
g5
tp1523
(lp1524
S'be valid'
p1525
aS'be in effect'
p1526
aS'pertain to'
p1527
aS'apply'
p1528
aS'concern'
p1529
as(S'skydd'
p1530
g5
tp1531
(lp1532
S'defence'
p1533
aS'security'
p1534
aS'shelter'
p1535
aS'protection'
p1536
as(S'form'
p1537
g5
tp1538
(lp1539
S'form'
p1540
aS'form'
p1541
aS'mould'
p1542
aS'shape'
p1543
as(S'viss'
p1544
g5
tp1545
(lp1546
S'certain'
p1547
as(g770
g455
tp1548
(lp1549
g773
as(S'antagna'
p1550
g998
tp1551
(lp1552
S'adopted'
p1553
as(S'd\xc3\xa4rtill'
p1554
S'ab'
p1555
tp1556
(lp1557
S'to that'
p1558
aS'besides'
p1559
as(S'st\xc3\xb6der'
p1560
S'vb'
p1561
tp1562
(lp1563
S'support'
p1564
aS'steady'
p1565
as(g667
g5
tp1566
(lp1567
g671
as(g302
S'nn'
p1568
tp1569
(lp1570
g305
as(S'jag'
p1571
S'pn'
p1572
tp1573
(lp1574
S'I'
p1575
as(S'ekonomin'
p1576
S'nn'
p1577
tp1578
(lp1579
S'economy'
p1580
as(g1070
S'nn'
p1581
tp1582
(lp1583
g1073
as(S'gjorts'
p1584
g5
tp1585
(lp1586
S'made'
p1587
as(S'beh\xc3\xb6ver'
p1588
S'vb'
p1589
tp1590
(lp1591
S'have to'
p1592
aS'need to'
p1593
aS'want'
p1594
aS'need'
p1595
aS'require'
p1596
as(S'm\xc3\xb6jligheten'
p1597
S'nn'
p1598
tp1599
(lp1600
S'possibility'
p1601
as(g403
g5
tp1602
(lp1603
g407
ag408
as(S'nya'
p1604
S'jj'
p1605
tp1606
(lp1607
S'new'
p1608
as(g1139
g5
tp1609
(lp1610
g1143
as(g235
S'nn'
p1611
tp1612
(lp1613
g238
as(S'yrkesutbildning'
p1614
g5
tp1615
(lp1616
S'training'
p1617
as(S'gruppera'
p1618
g5
tp1619
(lp1620
S'group'
p1621
as(S'andra'
p1622
g5
tp1623
(lp1624
S'another'
p1625
aS'other'
p1626
aS'other'
p1627
aS'present'
p1628
aS'advance'
p1629
aS'set forth'
p1630
aS'put forward'
p1631
aS'second'
p1632
as(S'det'
p1633
g5
tp1634
(lp1635
S'it'
p1636
aS'he'
p1637
aS'she'
p1638
aS'that'
p1639
ag1483
ag1484
as(S'elektronisk'
p1640
g5
tp1641
(lp1642
S'electronic'
p1643
as(S'h\xc3\xa4r'
p1644
S'ab'
p1645
tp1646
(lp1647
g542
as(g1264
g5
tp1648
(lp1649
g1268
as(S't\xc3\xa4ten'
p1650
S'nn'
p1651
tp1652
(lp1653
S'head'
p1654
as(S'som'
p1655
S'pn'
p1656
tp1657
(lp1658
g1042
ag1043
as(g1614
S'nn'
p1659
tp1660
(lp1661
g1617
as(g145
g5
tp1662
(lp1663
g149
aS'certainly'
p1664
aS'absolutely'
p1665
aS'definitely'
p1666
as(S'skapa'
p1667
g5
tp1668
(lp1669
S'cause'
p1670
aS'engender'
p1671
aS'produce'
p1672
aS'give rise to'
p1673
aS'make'
p1674
aS'create'
p1675
as(S'st\xc3\xb6ra'
p1676
S'vb'
p1677
tp1678
(lp1679
S'interrupt'
p1680
as(g480
g5
tp1681
(lp1682
g484
as(S'kontakter'
p1683
g268
tp1684
(lp1685
S'contact'
p1686
aS'socket'
p1687
aS'[electrical] outlet'
p1688
as(g960
g5
tp1689
(lp1690
g964
as(S'unionen'
p1691
S'nn'
p1692
tp1693
(lp1694
S'union'
p1695
as(S'f\xc3\xb6retag'
p1696
S'vb'
p1697
tp1698
(lp1699
S'perform'
p1700
aS'carry out'
p1701
aS'undertake'
p1702
as(g1158
g1080
tp1703
(lp1704
g1161
as(g1162
S'vb'
p1705
tp1706
(lp1707
g1165
ag1166
ag1167
as(S'diskuterade'
p1708
S'vb'
p1709
tp1710
(lp1711
S'discuss'
p1712
aS'debate'
p1713
aS'argue'
p1714
as(g876
g5
tp1715
(lp1716
g879
ag880
as(S'samst\xc3\xa4mmig'
p1717
g5
tp1718
(lp1719
S'unanimous'
p1720
aS'in accord'
p1721
as(S'genom'
p1722
g5
tp1723
(lp1724
S'through'
p1725
as(S'framsteg'
p1726
S'nn'
p1727
tp1728
(lp1729
S'progress'
p1730
as(S'man'
p1731
S'pn'
p1732
tp1733
(lp1734
g1516
as(g1025
g5
tp1735
(lp1736
g1029
ag1030
as(g1691
g5
tp1737
(lp1738
g1695
as(g950
S'ab'
p1739
tp1740
(lp1741
g953
ag954
as(g119
g5
tp1742
(lp1743
g123
ag124
as(S'beslutsamt'
p1744
S'jj'
p1745
tp1746
(lp1747
S'decisively'
p1748
aS'determined'
p1749
aS'resolute'
p1750
as(S'roll'
p1751
g5
tp1752
(lp1753
S'&quot;matter&quot;'
p1754
aS'r\xc3\xb4le'
p1755
aS'r\xc3\xb4le'
p1756
aS'part'
p1757
as(S'immateriella'
p1758
g1462
tp1759
(lp1760
S'immaterial'
p1761
as(S'varor'
p1762
g5
tp1763
(lp1764
S'goods'
p1765
aS'commodity'
p1766
as(g1453
g5
tp1767
(lp1768
g1457
ag1458
ag1459
ag1460
aS'excellently'
p1769
aS'well'
p1770
as(g864
g5
tp1771
(lp1772
g868
as(S's\xc3\xa5'
p1773
g5
tp1774
(lp1775
S'if so'
p1776
aS'in that case'
p1777
aS'so'
p1778
aS'so'
p1779
aS'thus'
p1780
aS'sow'
p1781
as(S'jag'
p1782
S'nn'
p1783
tp1784
(lp1785
S'ego'
p1786
as(g929
S'jj'
p1787
tp1788
(lp1789
g932
as(g348
g5
tp1790
(lp1791
g352
as(S'om'
p1792
S'pp'
p1793
tp1794
(lp1795
g393
ag394
ag395
ag396
as(g1286
g5
tp1796
(lp1797
g1290
ag1291
ag1292
ag1293
as(S'sade'
p1798
S'vb'
p1799
tp1800
(lp1801
S'said'
p1802
aS'say'
p1803
as(g1522
S'vb'
p1804
tp1805
(lp1806
g1525
ag1526
ag1527
ag1528
ag1529
as(g1298
S'vb'
p1807
tp1808
(lp1809
g1301
as(g419
S'nn'
p1810
tp1811
(lp1812
g422
ag423
ag424
ag425
ag426
as(g495
g5
tp1813
(lp1814
g499
ag781
as(S'handeln'
p1815
g5
tp1816
(lp1817
S'commerce'
p1818
aS'trade'
p1819
aS'business'
p1820
aS'shop'
p1821
as(g1373
S'article'
p1822
tp1823
(lp1824
g1376
ag1377
as(g21
g5
tp1825
(lp1826
g25
ag26
ag27
ag28
as(S'inf\xc3\xb6ra'
p1827
g5
tp1828
(lp1829
S'introduce'
p1830
as(S'noga'
p1831
S'ab'
p1832
tp1833
(lp1834
S'exactly'
p1835
aS'carefully'
p1836
as(S'\xc3\xa4n'
p1837
S'kn'
p1838
tp1839
(lp1840
S'than'
p1841
as(g869
g5
tp1842
(lp1843
g873
ag874
ag875
as(g627
S'nn'
p1844
tp1845
(lp1846
g630
ag631
as(g818
g212
tp1847
(lp1848
g821
as(S'kommer'
p1849
g5
tp1850
(lp1851
S'arouse'
p1852
aS'prompt'
p1853
aS'arrive'
p1854
aS'come'
p1855
aS'come from'
p1856
aS'will'
p1857
aS'be going to'
p1858
as(S'de'
p1859
S'article'
p1860
tp1861
(lp1862
S'the'
p1863
aS'that'
p1864
as(g1379
S'jj'
p1865
tp1866
(lp1867
g1382
as(g1604
g5
tp1868
(lp1869
g1608
as(g1597
g5
tp1870
(lp1871
g1601
as(g37
g5
tp1872
(lp1873
g41
as(S'en'
p1874
g5
tp1875
(lp1876
g1376
aS'an'
p1877
aS'about'
p1878
ag1338
ag1339
aS'one'
p1879
ag1387
as(g381
g5
tp1880
(lp1881
g385
aS'interested'
p1882
as(g1576
g5
tp1883
(lp1884
g1580
as(g1273
g5
tp1885
(lp1886
g1277
ag1278
ag1279
ag1280
ag1863
ag1864
as(g1758
g5
tp1887
(lp1888
g1761
as(g1726
g5
tp1889
(lp1890
g1730
as(S'utbildning'
p1891
g5
tp1892
(lp1893
S'education'
p1894
as(g1302
g5
tp1895
(lp1896
g1306
aS'my'
p1897
as(g1537
S'nn'
p1898
tp1899
(lp1900
g1540
ag1541
ag1542
ag1543
as(g1622
S'pn'
p1901
tp1902
(lp1903
g1625
ag1626
ag1627
as(S'tonvikten'
p1904
S'nn'
p1905
tp1906
(lp1907
S'stress'
p1908
as(S'f\xc3\xb6rtroende'
p1909
g5
tp1910
(lp1911
S'faith'
p1912
aS'confidence'
p1913
aS'trust'
p1914
as(g464
g5
tp1915
(lp1916
g468
ag469
ag470
ag471
ag472
as(g1676
g5
tp1917
(lp1918
g1680
as(g636
S'jj'
p1919
tp1920
(lp1921
g639
as(S'f\xc3\xb6rdelar'
p1922
g5
tp1923
(lp1924
S'benefit'
p1925
aS'advantage'
p1926
ag447
as(S'inneh\xc3\xa5lla'
p1927
S'vb'
p1928
tp1929
(lp1930
S'contain'
p1931
aS'withhold'
p1932
as(S'fr\xc3\xa4mst'
p1933
S'ab'
p1934
tp1935
(lp1936
g265
ag266
as(S'fr\xc3\xa4mja'
p1937
g5
tp1938
(lp1939
S'forward'
p1940
aS'further'
p1941
aS'promote'
p1942
as(g485
g5
tp1943
(lp1944
g489
as(g1466
S'nn'
p1945
tp1946
(lp1947
g1469
ag1470
as(S'vi'
p1948
S'pn'
p1949
tp1950
(lp1951
S'we'
p1952
as(g600
g5
tp1953
(lp1954
g604
as(g342
S'vb'
p1955
tp1956
(lp1957
g345
ag346
ag347
as(g1178
g5
tp1958
(lp1959
g1182
ag1183
as(S'n\xc3\xa4r'
p1960
S'kn'
p1961
tp1962
(lp1963
S'when'
p1964
as(S'ett'
p1965
S'rg'
p1966
tp1967
(lp1968
g1378
as(S'\xc3\xb6verensst\xc3\xa4mmer'
p1969
g5
tp1970
(lp1971
S'consistent'
p1972
as(g448
g5
tp1973
(lp1974
g452
ag453
as(S'liksom'
p1975
g5
tp1976
(lp1977
S'like'
p1978
aS'as'
p1979
ag243
ag244
as(S'utan'
p1980
S'kn'
p1981
tp1982
(lp1983
S'but'
p1984
as(g1414
g5
tp1985
(lp1986
g1418
as(S'stora'
p1987
g5
tp1988
(lp1989
S'large'
p1990
aS'big'
p1991
aS'great'
p1992
as(S's\xc3\xa4kerheten'
p1993
S'nn'
p1994
tp1995
(lp1996
S'certainty'
p1997
aS'safety'
p1998
aS'security'
p1999
as(g375
S'nn'
p2000
tp2001
(lp2002
g378
as(g1618
g961
tp2003
(lp2004
g1621
as(S'hindrar'
p2005
S'vb'
p2006
tp2007
(lp2008
S'prevent'
p2009
aS'hinder'
p2010
aS'check'
p2011
aS'restrain'
p2012
as(S'utveckling'
p2013
g5
tp2014
(lp2015
S'development'
p2016
aS'trend'
p2017
as(S'till\xc3\xa4mpningen'
p2018
S'nn'
p2019
tp2020
(lp2021
S'application'
p2022
as(g92
g5
tp2023
(lp2024
g96
aS'nourish'
p2025
ag97
ag1964
as(g809
S'nn'
p2026
tp2027
(lp2028
g812
ag813
ag814
ag815
ag816
ag817
as(g1584
g956
tp2029
(lp2030
g1587
as(S'f\xc3\xb6r'
p2031
S'ab'
p2032
tp2033
(lp2034
g1507
ag1508
as(S'arbetsstyrkan'
p2035
S'nn'
p2036
tp2037
(lp2038
S'labour (work) force'
p2039
as(g1751
S'nn'
p2040
tp2041
(lp2042
g1754
ag1755
ag1756
ag1757
as(S'ber\xc3\xa4ttigade'
p2043
S'jj'
p2044
tp2045
(lp2046
S'authorized'
p2047
aS'entitled'
p2048
aS'justified'
p2049
aS'legitimate'
p2050
as(S'verktyg'
p2051
S'nn'
p2052
tp2053
(lp2054
S'tool'
p2055
as(g276
g1265
tp2056
(lp2057
g279
ag280
ag281
ag282
as(g432
S'vb'
p2058
tp2059
(lp2060
g435
ag436
ag437
as(g1849
S'vb'
p2061
tp2062
(lp2063
g1852
ag1853
ag1854
ag1855
ag1856
ag1857
ag1858
as(S'begr\xc3\xa4nsning'
p2064
g5
tp2065
(lp2066
S'bounds'
p2067
aS'restriction'
p2068
aS'limitation'
p2069
as(g250
S'nn'
p2070
tp2071
(lp2072
g253
as(g1708
g5
tp2073
(lp2074
g1712
ag1713
ag1714
as(S'i'
p2075
S'ab'
p2076
tp2077
(lp2078
S'at'
p2079
aS'on'
p2080
as(S'vilja'
p2081
S'nn'
p2082
tp2083
(lp2084
g599
as(S'europeiska'
p2085
g5
tp2086
(lp2087
S'European'
p2088
as(g1135
S'nn'
p2089
tp2090
(lp2091
g1138
as(g1987
S'jj'
p2092
tp2093
(lp2094
g1990
ag1991
ag1992
as(g1363
g5
tp2095
(lp2096
g1367
as(g1762
S'nn'
p2097
tp2098
(lp2099
g1765
ag1766
as(g1503
S'kn'
p2100
tp2101
(lp2102
g1506
as(g1247
g5
tp2103
(lp2104
g1251
as(S'h\xc3\xb6rande'
p2105
g5
tp2106
(lp2107
S'domiciled'
p2108
as(S'utanf\xc3\xb6r'
p2109
S'pp'
p2110
tp2111
(lp2112
S'outside'
p2113
as(S'speciellt'
p2114
g5
tp2115
(lp2116
S'special'
p2117
as(S'intressen'
p2118
g5
tp2119
(lp2120
S'interest'
p2121
as(g1426
S'pp'
p2122
tp2123
(lp2124
g1429
ag1430
ag1431
ag1432
as(S'en'
p2125
S'pn'
p2126
tp2127
(lp2128
g1879
as(g1461
g5
tp2129
(lp2130
g1465
as(g1927
g5
tp2131
(lp2132
g1931
ag1932
as(S'komma'
p2133
S'vb'
p2134
tp2135
(lp2136
S'arouse'
p2137
aS'prompt'
p2138
aS'arrive'
p2139
aS'come'
p2140
aS'come from'
p2141
aS'will'
p2142
aS'be going to'
p2143
as(g267
g5
tp2144
(lp2145
g271
ag272
as(g2075
S'pp'
p2146
tp2147
(lp2148
S'as'
p2149
aS'at'
p2150
aS'in'
p2151
aS'for'
p2152
aS'on'
p2153
aS'of'
p2154
aS'to'
p2155
as(g1993
g5
tp2156
(lp2157
g1997
ag1998
ag1999
as(g2064
S'nn'
p2158
tp2159
(lp2160
g2067
ag2068
ag2069
as(S'av'
p2161
S'ab'
p2162
tp2163
(lp2164
g1068
ag1069
as(g955
g5
tp2165
(lp2166
g959
as(g543
g5
tp2167
(lp2168
g547
ag548
ag549
ag550
as(g886
g5
tp2169
(lp2170
g890
as(S'inr\xc3\xa4tta'
p2171
S'vb'
p2172
tp2173
(lp2174
S'establish'
p2175
aS'found'
p2176
aS'start'
p2177
aS'set up'
p2178
as(g1827
S'vb'
p2179
tp2180
(lp2181
g1830
as(g220
S'nn'
p2182
tp2183
(lp2184
g223
ag224
as(S'resebranschen'
p2185
S'nn'
p2186
tp2187
(lp2188
S'travel industry'
p2189
as(g2118
S'nn'
p2190
tp2191
(lp2192
g2121
as(g1350
S'jj'
p2193
tp2194
(lp2195
g1353
ag1354
as(g1683
g5
tp2196
(lp2197
g1686
ag1687
ag1688
as(S'under'
p2198
S'pp'
p2199
tp2200
(lp2201
S'beneath'
p2202
aS'below'
p2203
aS'during'
p2204
aS'under'
p2205
aS'in'
p2206
as(S'h\xc3\xa4nsyn'
p2207
g5
tp2208
(lp2209
S'consideration'
p2210
aS'respect'
p2211
as(S'intresserade'
p2212
S'jj'
p2213
tp2214
(lp2215
g1882
as(g2018
g5
tp2216
(lp2217
g2022
as(S'kvalifikationerna'
p2218
g5
tp2219
(lp2220
S'qualifications'
p2221
as(g1530
S'nn'
p2222
tp2223
(lp2224
g1533
ag1534
ag1535
ag1536
as(g965
g5
tp2225
(lp2226
g969
as(g824
g5
tp2227
(lp2228
g828
as(S's\xc3\xa5'
p2229
S'kn'
p2230
tp2231
(lp2232
g1778
as(S'senaste'
p2233
g1008
tp2234
(lp2235
S'last'
p2236
as(S'ge'
p2237
S'vb'
p2238
tp2239
(lp2240
S'give'
p2241
as(g1909
S'nn'
p2242
tp2243
(lp2244
g1912
ag1913
ag1914
as(g1717
S'jj'
p2245
tp2246
(lp2247
g1720
ag1721
as(g908
g5
tp2248
(lp2249
g912
ag2113
as(S'gladde'
p2250
g5
tp2251
(lp2252
S'delight'
p2253
aS'please'
p2254
aS'give pleasure'
p2255
aS'gave (sby) pleasure'
p2256
as(g556
S'ab'
p2257
tp2258
(lp2259
g559
ag560
as(g1837
g5
tp2260
(lp2261
g1841
ag793
ag794
ag795
as(g1330
S'ab'
p2262
tp2263
(lp2264
g1333
as(g1560
g5
tp2265
(lp2266
g1564
ag1565
as(S'ber\xc3\xa4ttigade'
p2267
g5
tp2268
(lp2269
S'authorize'
p2270
aS'entitle'
p2271
ag2047
ag2048
ag2049
ag2050
as(g1544
S'jj'
p2272
tp2273
(lp2274
g1547
as(S'inre'
p2275
S'nn'
p2276
tp2277
(lp2278
g374
as(g881
S'nn'
p2279
tp2280
(lp2281
g884
as(g804
g5
tp2282
(lp2283
g808
as(g150
S'ab'
p2284
tp2285
(lp2286
g153
ag154
ag155
as(g1798
g5
tp2287
(lp2288
g1802
ag1803
as(g584
S'pn'
p2289
tp2290
(lp2291
g587
ag588
ag589
ag592
as(S'datorernas'
p2292
S'nn'
p2293
tp2294
(lp2295
S'computers'
p2296
as(S'v\xc3\xa5r'
p2297
g5
tp2298
(lp2299
S'our'
p2300
aS'spring'
p2301
as(g1815
S'nn'
p2302
tp2303
(lp2304
g1818
ag1819
ag1820
ag1821
as(g983
S'jj'
p2305
tp2306
(lp2307
g986
as(S'mig'
p2308
S'pn'
p2309
tp2310
(lp2311
S'me'
p2312
aS'myself'
p2313
as(g1130
g5
tp2314
(lp2315
g1134
as(S'undantag'
p2316
S'nn'
p2317
tp2318
(lp2319
S'exception'
p2320
as(g1937
S'vb'
p2321
tp2322
(lp2323
g1940
ag1941
ag1942
as(S'noga'
p2324
g5
tp2325
(lp2326
S'careful'
p2327
ag1835
ag1836
as(g716
g5
tp2328
(lp2329
g720
ag721
ag722
ag723
ag724
as(g1498
g5
tp2330
(lp2331
g1502
ag1037
as(g2105
S'jj'
p2332
tp2333
(lp2334
g2108
as(S'undantag'
p2335
S'vb'
p2336
tp2337
(lp2338
S'exempt'
p2339
aS'except'
p2340
as(g829
g5
tp2341
(lp2342
g833
as(g1891
S'nn'
p2343
tp2344
(lp2345
g1894
as(S'bara'
p2346
S'ab'
p2347
tp2348
(lp2349
S'merely'
p2350
aS'only'
p2351
aS'just'
p2352
as(g645
g5
tp2353
(lp2354
g649
as(S'b\xc3\xa4ttre'
p2355
S'ab'
p2356
tp2357
(lp2358
g1769
ag1770
as(S'mellan'
p2359
g5
tp2360
(lp2361
S'between'
p2362
as(g1554
g5
tp2363
(lp2364
g1558
ag1559
as(g632
S'nn'
p2365
tp2366
(lp2367
g635
as(g2297
S'pn'
p2368
tp2369
(lp2370
g2300
as(S'e-handel'
p2371
g5
tp2372
(lp2373
S'E-Commerce'
p2374
as(g2218
S'nn'
p2375
tp2376
(lp2377
g2221
as(g851
S'nn'
p2378
tp2379
(lp2380
g854
ag855
ag856
ag857
as(S'andra'
p2381
S'vb'
p2382
tp2383
(lp2384
g1628
ag1629
ag1630
ag1631
as(S'l\xc3\xa4gger'
p2385
g5
tp2386
(lp2387
S'place'
p2388
aS'put'
p2389
aS'set'
p2390
aS'lay'
p2391
as(g1062
S'pp'
p2392
tp2393
(lp2394
g1065
ag1066
ag1067
as(g942
S'jj'
p2395
tp2396
(lp2397
g945
as(g1922
S'nn'
p2398
tp2399
(lp2400
g1925
ag1926
as(g2171
g5
tp2401
(lp2402
g2175
ag2176
ag2177
ag2178
as(g2292
g5
tp2403
(lp2404
g2296
as(g978
S'nn'
p2405
tp2406
(lp2407
g981
ag982
as(g56
g5
tp2408
(lp2409
g60
as(S'e-handelsmarknad'
p2410
S'nn'
p2411
tp2412
(lp2413
S'E-Commerce Market'
p2414
as(S'utforma'
p2415
g614
tp2416
(lp2417
S'design'
p2418
as(g576
g5
tp2419
(lp2420
g580
as(g512
g5
tp2421
(lp2422
g516
as(S'bara'
p2423
S'jj'
p2424
tp2425
(lp2426
S'naked'
p2427
aS'bare'
p2428
as(g1109
g5
tp2429
(lp2430
g1113
ag1114
ag1115
as(g1211
g5
tp2431
(lp2432
g1215
as(S'tekniska'
p2433
S'jj'
p2434
tp2435
(lp2436
S'[technically] adept'
p2437
aS'technical'
p2438
as(S'marknaden'
p2439
S'nn'
p2440
tp2441
(lp2442
S'market'
p2443
as(g1196
g5
tp2444
(lp2445
g1200
as(g537
S'nn'
p2446
tp2447
(lp2448
g540
ag541
as(g761
S'nn'
p2449
tp2450
(lp2451
g764
as(S'r\xc3\xa4ttm\xc3\xa4tiga'
p2452
g5
tp2453
(lp2454
S'rightful'
p2455
aS'lawful'
p2456
as(g2237
g5
tp2457
(lp2458
g2241
as(S's\xc3\xa5'
p2459
S'ab'
p2460
tp2461
(lp2462
g1779
ag1780
as(g135
g5
tp2463
(lp2464
g139
ag140
ag141
ag142
ag143
ag144
as(S'mer'
p2465
S'jj'
p2466
tp2467
(lp2468
S'more'
p2469
as(g2324
S'jj'
p2470
tp2471
(lp2472
g2327
as(g1874
S'article'
p2473
tp2474
(lp2475
g1376
ag1877
as(S'p\xc3\xa5'
p2476
S'pp'
p2477
tp2478
(lp2479
S'after'
p2480
aS'in'
p2481
aS'during'
p2482
aS'of'
p2483
aS'at'
p2484
aS'on'
p2485
as(g1048
S'jj'
p2486
tp2487
(lp2488
g1051
as(g1184
g5
tp2489
(lp2490
g1188
ag1189
ag974
ag996
ag997
ag1190
as(S'fr\xc3\xa5ga'
p2491
S'vb'
p2492
tp2493
(lp2494
S'ask'
p2495
as(g2371
S'nn'
p2496
tp2497
(lp2498
g2374
as(g1948
g5
tp2499
(lp2500
g1952
as(g676
g5
tp2501
(lp2502
g680
as(g2005
g5
tp2503
(lp2504
g2009
ag2010
ag2011
ag2012
as(S'forts\xc3\xa4tter'
p2505
g5
tp2506
(lp2507
S'continue'
p2508
aS'go on'
p2509
aS'keep on'
p2510
aS'carry on'
p2511
as(S'skydds\xc3\xa5tg\xc3\xa4rder'
p2512
g5
tp2513
(lp2514
S'protective'
p2515
as(g1640
S'jj'
p2516
tp2517
(lp2518
g1643
as(g15
S'nn'
p2519
tp2520
(lp2521
g18
ag19
ag20
as(S'vara'
p2522
g5
tp2523
(lp2524
S'am'
p2525
aS'are'
p2526
aS'is'
p2527
aS'be'
p2528
aS'last'
p2529
ag1107
ag1108
as(g2452
S'jj'
p2530
tp2531
(lp2532
g2455
ag2456
as(g427
g5
tp2533
(lp2534
g431
as(g1485
S'pn'
p2535
tp2536
(lp2537
g1488
ag1489
ag1490
ag1491
as(S'under'
p2538
S'nn'
p2539
tp2540
(lp2541
S'wonder'
p2542
as(g1116
g5
tp2543
(lp2544
g1120
ag1121
ag1122
ag1123
ag1124
ag1243
ag1244
ag1245
ag1246
as(g913
g5
tp2545
(lp2546
g916
as(g1148
S'nn'
p2547
tp2548
(lp2549
g1151
as(g2133
g5
tp2550
(lp2551
g2137
ag2138
ag2139
ag2140
ag2141
ag658
ag2142
ag2143
as(g938
S'kn'
p2552
tp2553
(lp2554
g941
as(S'n\xc3\xa4r'
p2555
S'vb'
p2556
tp2557
(lp2558
g2025
as(S'n\xc3\xb6dv\xc3\xa4ndigheten'
p2559
g5
tp2560
(lp2561
S'necessity'
p2562
as(S'mina'
p2563
S'pn'
p2564
tp2565
(lp2566
g1897
as(g2433
g5
tp2567
(lp2568
g2437
ag2438
as(S'konsumentskyddsdirektiv'
p2569
g5
tp2570
(lp2571
S'consumer protection directives'
p2572
as(S'mer'
p2573
S'ab'
p2574
tp2575
(lp2576
S'more'
p2577
aS'additional'
p2578
as(g2051
g5
tp2579
(lp2580
g2055
as(g231
S'vb'
p2581
tp2582
(lp2583
g234
as(g2316
g5
tp2584
(lp2585
g2320
ag2339
ag2340
as(g1044
S'nn'
p2586
tp2587
(lp2588
g1047
as(g414
g5
tp2589
(lp2590
g418
as(S'andra'
p2591
S'rg'
p2592
tp2593
(lp2594
g1632
as(g2207
S'nn'
p2595
tp2596
(lp2597
g2210
ag2211
as(g1083
S'nn'
p2598
tp2599
(lp2600
g1086
ag1087
as(g283
g5
tp2601
(lp2602
g287
ag288
as(g156
S'jj'
p2603
tp2604
(lp2605
g159
as(g2075
g5
tp2606
(lp2607
g2149
ag2150
ag2151
ag2152
ag2153
ag2154
ag2155
ag2079
ag2080
as(g1550
g5
tp2608
(lp2609
g1553
as(g1094
g5
tp2610
(lp2611
g1098
as(g1744
g5
tp2612
(lp2613
g1748
ag1749
ag1750
as(S'b\xc3\xb6r'
p2614
S'vb'
p2615
tp2616
(lp2617
S'ought to'
p2618
aS'should'
p2619
as(g1281
S'nn'
p2620
tp2621
(lp2622
g1284
ag1285
as(g2185
g5
tp2623
(lp2624
g2189
as(S'procent'
p2625
S'nn'
p2626
tp2627
(lp2628
S'per cent'
p2629
as(g289
S'nn'
p2630
tp2631
(lp2632
g292
as(g2085
S'jj'
p2633
tp2634
(lp2635
g2088
as(g1216
g5
tp2636
(lp2637
g1220
as(S'till'
p2638
g5
tp2639
(lp2640
S'another'
p2641
aS'more'
p2642
ag193
ag194
ag195
ag196
ag197
ag198
ag199
as(g2233
g5
tp2643
(lp2644
g2236
as(g2198
g5
tp2645
(lp2646
g2202
ag2203
ag2204
ag2205
ag2206
ag2542
as(g1773
S'pn'
p2647
tp2648
(lp2649
g1776
ag1777
as(g173
S'jj'
p2650
tp2651
(lp2652
g176
ag177
ag178
ag179
ag180
as(g2415
g5
tp2653
(lp2654
g2418
as(g207
g455
tp2655
(lp2656
g210
as(S'n\xc3\xa4tbutiker'
p2657
S'nn'
p2658
tp2659
(lp2660
S'online stores'
p2661
as(g1446
S'nn'
p2662
tp2663
(lp2664
g1449
as(g2267
S'vb'
p2665
tp2666
(lp2667
g2270
ag2271
as(g1252
g5
tp2668
(lp2669
g1256
as(g1975
S'kn'
p2670
tp2671
(lp2672
g1978
ag1979
as(g337
g5
tp2673
(lp2674
g341
as(g211
g5
tp2675
(lp2676
g215
as(S'slutits'
p2677
g5
tp2678
(lp2679
S'concluded'
p2680
as(g181
S'nn'
p2681
tp2682
(lp2683
g184
as(g891
g5
tp2684
(lp2685
g895
as(g1074
g5
tp2686
(lp2687
g1078
ag1079
as(g2677
g1265
tp2688
(lp2689
g2680
as(g2308
g5
tp2690
(lp2691
g2312
ag2313
as(g1650
g5
tp2692
(lp2693
g1654
as(g1152
S'kn'
p2694
tp2695
(lp2696
g1155
as(g490
g5
tp2697
(lp2698
g494
as(g1317
g623
tp2699
(lp2700
g1320
ag1321
as(S'distansavtal'
p2701
S'nn'
p2702
tp2703
(lp2704
S'distance contracts'
p2705
as(g1904
g5
tp2706
(lp2707
g1908
as(g2491
g5
tp2708
(lp2709
g2495
ag1496
ag1497
as(g298
S'ab'
p2710
tp2711
(lp2712
g301
as(g1312
S'ab'
p2713
tp2714
(lp2715
g1315
ag1316
as(g730
S'nn'
p2716
tp2717
(lp2718
g733
ag734
ag735
as(S'v\xc3\xa5r'
p2719
g1659
tp2720
(lp2721
g2301
as(g293
g5
tp2722
(lp2723
g297
as(g2701
g5
tp2724
(lp2725
g2705
as(g74
g5
tp2726
(lp2727
g78
ag79
ag80
as(g2522
S'vb'
p2728
tp2729
(lp2730
g2525
ag2526
ag2527
ag2528
ag2529
as(g1588
g5
tp2731
(lp2732
g1592
ag1593
ag1594
ag1595
ag1596
as(g2625
g5
tp2733
(lp2734
g2629
as(g561
S'vb'
p2735
tp2736
(lp2737
g564
ag565
ag566
ag567
as(g2512
g1265
tp2738
(lp2739
g2515
as(g2035
g5
tp2740
(lp2741
g2039
as(g1018
g5
tp2742
(lp2743
g5
ag1984
ag413
as(g398
g5
tp2744
(lp2745
g402
as(g946
g1860
tp2746
(lp2747
g949
as(S'den'
p2748
S'article'
p2749
tp2750
(lp2751
g593
ag594
as(S'vart'
p2752
S'ab'
p2753
tp2754
(lp2755
g1237
as(g1038
S'kn'
p2756
tp2757
(lp2758
g1041
as(g1969
S'jj'
p2759
tp2760
(lp2761
g1972
as(g2657
g5
tp2762
(lp2763
g2661
as(g2250
S'vb'
p2764
tp2765
(lp2766
g2253
ag2254
ag2255
ag2256
as(g1667
S'vb'
p2767
tp2768
(lp2769
g1670
ag1671
ag1672
ag1673
ag1674
ag1675
as(g362
g2486
tp2770
(lp2771
g365
ag366
ag367
as(S'absolut'
p2772
S'ab'
p2773
tp2774
(lp2775
g1664
ag1665
ag1666
as(g2359
S'pp'
p2776
tp2777
(lp2778
g2362
as(S'en'
p2779
S'ab'
p2780
tp2781
(lp2782
g1878
as(g2385
S'vb'
p2783
tp2784
(lp2785
g2388
ag2389
ag2390
ag2391
as(g1340
g5
tp2786
(lp2787
g1344
ag1345
ag1346
ag1347
ag1700
ag1701
ag1702
as(g2614
g5
tp2788
(lp2789
g2618
ag2619
as(g744
S'nn'
p2790
tp2791
(lp2792
g747
as(g2638
S'ab'
p2793
tp2794
(lp2795
g2641
ag2642
as(g2465
g5
tp2796
(lp2797
g2469
ag2577
ag2578
as(g2569
S'nn'
p2798
tp2799
(lp2800
g2572
as(g473
S'nn'
p2801
tp2802
(lp2803
g476
ag477
as(g454
g5
tp2804
(lp2805
g458
as(g2410
g5
tp2806
(lp2807
g2414
as(g1433
S'nn'
p2808
tp2809
(lp2810
g1436
ag1437
ag1438
ag1439
as(g659
g5
tp2811
(lp2812
g663
as(g2114
S'jj'
p2813
tp2814
(lp2815
g2117
as(S'efter'
p2816
S'pp'
p2817
tp2818
(lp2819
g1370
ag1371
ag1372
as(g216
g136
tp2820
(lp2821
g219
as(g686
g5
tp2822
(lp2823
g690
as(g707
g5
tp2824
(lp2825
g711
ag712
ag713
ag714
ag715
as(g1571
g5
tp2826
(lp2827
g1575
ag1786
as(g919
g5
tp2828
(lp2829
g923
ag2350
ag2351
ag2352
ag2427
ag2428
as(g1398
g2764
tp2830
(lp2831
g1401
ag1402
as(g1144
S'nn'
p2832
tp2833
(lp2834
g1147
as(g784
g5
tp2835
(lp2836
g788
as(g2013
S'nn'
p2837
tp2838
(lp2839
g2016
ag2017
as(g753
S'jj'
p2840
tp2841
(lp2842
g756
as(S's\xc3\xa5'
p2843
S'vb'
p2844
tp2845
(lp2846
g1781
as(g2559
S'nn'
p2847
tp2848
(lp2849
g2562
as(g2439
g5
tp2850
(lp2851
g2443
as(g2505
S'vb'
p2852
tp2853
(lp2854
g2508
ag2509
ag2510
ag2511
as(g1722
g956
tp2855
(lp2856
g1725
as(S'om'
p2857
g2694
tp2858
(lp2859
g397
as(g605
g5
tp2860
(lp2861
g609
as(g1633
S'pn'
p2862
tp2863
(lp2864
g1636
ag1637
ag1638
ag1639
as(g2476
g5
tp2865
(lp2866
g2480
ag524
ag2481
ag2482
ag2483
ag2484
ag2485
as.