ccollections
defaultdict
p0
(c__builtin__
list
p1
tp2
Rp3
(S'befolkningen'
p4
S''
p5
tp6
(lp7
S'people'
p8
aS'population'
p9
as(S'vart'
p10
S'pn'
p11
tp12
(lp13
S'every'
p14
as(S'anv\xc3\xa4ndningen'
p15
g5
tp16
(lp17
S'usage'
p18
aS'employment'
p19
aS'use'
p20
as(S'intar'
p21
S'vb'
p22
tp23
(lp24
S'occupy'
p25
aS'take'
p26
aS'partake of'
p27
aS'eat'
p28
as(S'man'
p29
S'nn'
p30
tp31
(lp32
S'husband'
p33
aS'man'
p34
aS'mane'
p35
aS'person'
p36
as(S'r\xc3\xa4ttighet'
p37
S'nn'
p38
tp39
(lp40
S'right'
p41
as(S'sin'
p42
g5
tp43
(lp44
S'his'
p45
aS'one'
p46
aS'her'
p47
aS'its'
p48
aS'theirs'
p49
as(S'fru'
p50
S'nn'
p51
tp52
(lp53
S'wife'
p54
aS'Mrs.'
p55
as(S'f\xc3\xb6rb\xc3\xa4ttra'
p56
S'vb'
p57
tp58
(lp59
S'improve'
p60
as(S'm\xc3\xb6jlighet'
p61
g5
tp62
(lp63
S'possibility'
p64
as(S'se'
p65
g5
tp66
(lp67
S'notice'
p68
aS'watch'
p69
aS'see'
p70
aS'look'
p71
aS'view'
p72
aS'perceive'
p73
as(S'samverkar'
p74
S'vb'
p75
tp76
(lp77
S'collaborate'
p78
aS'cooperate'
p79
aS'work together'
p80
as(S'tack'
p81
S'nn'
p82
tp83
(lp84
S'thanks'
p85
as(S'rent'
p86
S'jj'
p87
tp88
(lp89
S'clean'
p90
aS'pure'
p91
as(S'n\xc3\xa4r'
p92
S'ab'
p93
tp94
(lp95
S'near'
p96
aS'when'
p97
as(S's\xc3\xa4kerst\xc3\xa4lla'
p98
g5
tp99
(lp100
S'guarantee'
p101
aS'secure'
p102
as(g4
S'nn'
p103
tp104
(lp105
g8
ag9
as(S'plats'
p106
g5
tp107
(lp108
S'place'
p109
aS'position'
p110
aS'job'
p111
aS'room'
p112
as(S'tillg\xc3\xa4ngliga'
p113
S'jj'
p114
tp115
(lp116
S'available'
p117
aS'accessible'
p118
as(S'f\xc3\xb6rs\xc3\xa4kringar'
p119
S'nn'
p120
tp121
(lp122
S'assurance'
p123
aS'insurance'
p124
as(S'skydda'
p125
S'vb'
p126
tp127
(lp128
S'preserve'
p129
aS'protect'
p130
aS'cover'
p131
aS'secure'
p132
aS'shelter'
p133
aS'defend'
p134
as(S'blev'
p135
S'vb'
p136
tp137
(lp138
S'become'
p139
aS'get'
p140
aS'be'
p141
aS'was'
p142
aS'got'
p143
aS'became'
p144
as(S'absolut'
p145
S'jj'
p146
tp147
(lp148
S'absolute'
p149
as(S'rent'
p150
g5
tp151
(lp152
S'absolutely'
p153
aS'completely'
p154
aS'quite'
p155
ag90
ag91
as(S'f\xc3\xb6rra'
p156
g5
tp157
(lp158
S'former'
p159
as(S'tredje'
p160
g5
tp161
(lp162
S'third'
p163
as(S'teknikerna'
p164
g5
tp165
(lp166
S'engineer'
p167
aS'technician'
p168
as(S'stimulera'
p169
g5
tp170
(lp171
S'stimulate'
p172
as(S'egna'
p173
g5
tp174
(lp175
S'odd'
p176
aS'peculiar'
p177
aS'strange'
p178
aS'queer'
p179
aS'own'
p180
as(S'konsumenterna'
p181
g5
tp182
(lp183
S'consumer'
p184
as(S'st\xc3\xb6dja'
p185
g5
tp186
(lp187
S'supporting'
p188
as(S'till'
p189
S'pp'
p190
tp191
(lp192
S'into'
p193
aS'until'
p194
aS'to'
p195
aS'of'
p196
aS'for'
p197
aS'as'
p198
aS'to'
p199
as(S'regel'
p200
S'nn'
p201
tp202
(lp203
S'bolt'
p204
aS'custom'
p205
aS'ule'
p206
as(S'internetf\xc3\xb6retag'
p207
g5
tp208
(lp209
S'internet companies'
p210
as(S'd\xc3\xa4ribland'
p211
S'jj'
p212
tp213
(lp214
S'including'
p215
as(S'bredband'
p216
g5
tp217
(lp218
S'broadband'
p219
as(S'avtal'
p220
g5
tp221
(lp222
S'agreement'
p223
aS'contract'
p224
as(S'avg\xc3\xb6rande'
p225
S'jj'
p226
tp227
(lp228
S'decisive'
p229
aS'conclusive'
p230
as(S'spela'
p231
g5
tp232
(lp233
S'play'
p234
as(S'e-handelns'
p235
g5
tp236
(lp237
S'E-Commerce'
p238
as(S'liksom'
p239
S'ab'
p240
tp241
(lp242
S'so to speak'
p243
aS'as it were'
p244
as(S'v\xc3\xa4rldsomsp\xc3\xa4nnande'
p245
S'nn'
p246
tp247
(lp248
S'global'
p249
as(S'konsumenternas'
p250
g5
tp251
(lp252
S'consumer'
p253
as(S'lagliga'
p254
g5
tp255
(lp256
S'legal'
p257
as(S'fr\xc3\xa4mst'
p258
g5
tp259
(lp260
S'in front'
p261
aS'first'
p262
aS'foremost'
p263
aS'primary'
p264
aS'mainly'
p265
aS'foremost'
p266
as(S'kulturf\xc3\xb6rem\xc3\xa5l'
p267
S'nn'
p268
tp269
(lp270
S'artifacts'
p271
aS'cultural'
p272
as(g106
S'nn'
p273
tp274
(lp275
g109
ag110
ag111
ag112
as(S'skyddet'
p276
g5
tp277
(lp278
S'defence'
p279
aS'security'
p280
aS'shelter'
p281
aS'protection'
p282
as(S'kunna'
p283
S'vb'
p284
tp285
(lp286
S'can'
p287
aS'know'
p288
as(S'handlingsplanen'
p289
g5
tp290
(lp291
S'Action Plan'
p292
as(S'harmonisera'
p293
S'vb'
p294
tp295
(lp296
S'harmonise'
p297
as(S'nu'
p298
g5
tp299
(lp300
S'now'
p301
as(S'gemenskapsr\xc3\xa4tten'
p302
g5
tp303
(lp304
S'community law'
p305
as(S'vad'
p306
S'ab'
p307
tp308
(lp309
S'how'
p310
as(S'sina'
p311
S'vb'
p312
tp313
(lp314
S'run short'
p315
aS'become (run) dry'
p316
aS'dry up'
p317
as(S'data'
p318
g5
tp319
(lp320
S'computer'
p321
aS'data'
p322
as(S'huvud'
p323
g5
tp324
(lp325
S'head'
p326
as(S'\xc3\xb6nskem\xc3\xa5l'
p327
S'nn'
p328
tp329
(lp330
S'desire'
p331
aS'wish'
p332
as(S'registrering'
p333
S'nn'
p334
tp335
(lp336
S'registration'
p337
as(S'ha'
p338
g5
tp339
(lp340
S'have'
p341
aS'possess'
p342
aS'be provided with'
p343
as(S'utnyttja'
p344
S'vb'
p345
tp346
(lp347
S'make use of'
p348
as(S'\xc3\xa4r'
p349
S'vb'
p350
tp351
(lp352
S'am'
p353
aS'are'
p354
aS'is'
p355
as(g245
g5
tp356
(lp357
g249
as(S'stort'
p358
g5
tp359
(lp360
S'large'
p361
aS'big'
p362
aS'great'
p363
as(S'inre'
p364
g5
tp365
(lp366
S'inner'
p367
aS'interior'
p368
aS'internal'
p369
aS'inside'
p370
as(S'konsument'
p371
g5
tp372
(lp373
S'consumer'
p374
as(g200
g5
tp375
(lp376
g204
ag205
ag206
as(S'intresserade'
p377
S'vb'
p378
tp379
(lp380
S'interest'
p381
as(S'om'
p382
g5
tp383
(lp384
S'about'
p385
aS'again'
p386
aS're-'
p387
aS'round'
p388
aS'by'
p389
aS'of'
p390
aS'about'
p391
aS'round'
p392
aS'if'
p393
as(S'exempelvis'
p394
S'ab'
p395
tp396
(lp397
S'for example'
p398
as(S'dialog'
p399
S'nn'
p400
tp401
(lp402
S'(dialog [US])'
p403
aS'dialogue'
p404
as(S'utan'
p405
S'pp'
p406
tp407
(lp408
S'without'
p409
as(S'system'
p410
S'nn'
p411
tp412
(lp413
S'system'
p414
as(S'tj\xc3\xa4nster'
p415
g5
tp416
(lp417
S'job'
p418
aS'post'
p419
aS'service'
p420
aS'duty'
p421
aS'favour'
p422
as(S'distansf\xc3\xb6rs\xc3\xa4ljning'
p423
S'nn'
p424
tp425
(lp426
S'distance sales'
p427
as(S'har'
p428
g5
tp429
(lp430
S'have'
p431
aS'possess'
p432
aS'be provided with'
p433
as(S'st\xc3\xa4rka'
p434
g5
tp435
(lp436
S'starch'
p437
aS'strengthen'
p438
as(S'f\xc3\xb6rdelar'
p439
S'vb'
p440
tp441
(lp442
S'divide'
p443
as(S'utvecklas'
p444
S'vb'
p445
tp446
(lp447
S'grow'
p448
aS'develop'
p449
as(S'internetleverant\xc3\xb6rernas'
p450
S'ab'
p451
tp452
(lp453
S'Internet Service Providers'
p454
as(S'vid'
p455
S'jj'
p456
tp457
(lp458
S'wide'
p459
as(S'allm\xc3\xa4nt'
p460
S'jj'
p461
tp462
(lp463
S'common'
p464
aS'general'
p465
aS'public'
p466
aS'vague'
p467
aS'generally'
p468
as(S'antal'
p469
g5
tp470
(lp471
S'quantity'
p472
aS'number'
p473
as(g113
g5
tp474
(lp475
g117
ag118
as(S'privatkopieringen'
p476
S'nn'
p477
tp478
(lp479
S'private copying'
p480
as(S'produkter'
p481
S'nn'
p482
tp483
(lp484
S'product'
p485
as(S'e-handla'
p486
S'vb'
p487
tp488
(lp489
S'engage in e-commerce'
p490
as(S'att'
p491
S'kn'
p492
tp493
(lp494
S'that'
p495
as(S'sammantr\xc3\xa4desperioden'
p496
S'nn'
p497
tp498
(lp499
S'session'
p500
as(S'\xc3\xa4ven'
p501
S'ab'
p502
tp503
(lp504
S'too'
p505
aS'even'
p506
aS'also'
p507
as(S'adekvata'
p508
S'jj'
p509
tp510
(lp511
S'adequate'
p512
as(g434
S'vb'
p513
tp514
(lp515
g437
ag438
as(S'p\xc3\xa5'
p516
S'ab'
p517
tp518
(lp519
S'at etc.'
p520
as(S'f\xc3\xb6rnuftig'
p521
g5
tp522
(lp523
S'reasonable'
p524
aS'sensible'
p525
as(S'tydligt'
p526
S'jj'
p527
tp528
(lp529
S'clear'
p530
aS'legible'
p531
aS'clearly'
p532
as(S'h\xc3\xa4r'
p533
g5
tp534
(lp535
S'army'
p536
aS'host'
p537
aS'here'
p538
as(S'g\xc3\xb6ra'
p539
S'vb'
p540
tp541
(lp542
S'cause'
p543
aS'make'
p544
aS'do'
p545
aS'make'
p546
as(S'denna'
p547
S'pn'
p548
tp549
(lp550
S'this'
p551
as(S'ocks\xc3\xa5'
p552
g5
tp553
(lp554
S'too'
p555
aS'also'
p556
as(S'satsa'
p557
g5
tp558
(lp559
S'stake'
p560
aS'back'
p561
aS'venture'
p562
aS'bet on'
p563
as(S'f\xc3\xa5'
p564
S'vb'
p565
tp566
(lp567
S'have'
p568
aS'may'
p569
aS'receive'
p570
aS'get'
p571
as(S'unionens'
p572
S'nn'
p573
tp574
(lp575
S'union'
p576
as(g160
S'rg'
p577
tp578
(lp579
g163
as(S'den'
p580
g5
tp581
(lp582
S'it'
p583
aS'he'
p584
aS'she'
p585
aS'portable computer'
p586
aS'laptop'
p587
aS'that'
p588
aS'the'
p589
aS'that'
p590
as(S'vilja'
p591
g5
tp592
(lp593
S'want'
p594
aS'will'
p595
as(S'\xc3\xa4ndringsf\xc3\xb6rslag'
p596
S'nn'
p597
tp598
(lp599
S'amendment proposal'
p600
as(S'dataskydd'
p601
S'nn'
p602
tp603
(lp604
S'data protection'
p605
as(g61
S'nn'
p606
tp607
(lp608
g64
as(S'utlandsbaserade'
p609
S'vb'
p610
tp611
(lp612
S'foreign-based'
p613
as(S'konsumentavtal'
p614
g5
tp615
(lp616
S'consumer contracts'
p617
as(S'f\xc3\xb6rsvaras'
p618
S'vb'
p619
tp620
(lp621
S'defended'
p622
as(S'regler'
p623
g5
tp624
(lp625
S'custom'
p626
aS'rule'
p627
as(S'strategi'
p628
g5
tp629
(lp630
S'strategy'
p631
as(S'vetenskapliga'
p632
g5
tp633
(lp634
S'scientific'
p635
as(S'vill'
p636
S'vb'
p637
tp638
(lp639
S'want'
p640
as(S'konsumentskydd'
p641
S'nn'
p642
tp643
(lp644
S'consumer protection'
p645
as(S'detta'
p646
g5
tp647
(lp648
S'this'
p649
as(S'komma'
p650
S'nn'
p651
tp652
(lp653
S'comma'
p654
as(S'typ'
p655
S'nn'
p656
tp657
(lp658
S'type'
p659
as(g614
S'nn'
p660
tp661
(lp662
g617
as(S'enligt'
p663
S'pp'
p664
tp665
(lp666
S'according to'
p667
as(g125
g5
tp668
(lp669
g129
ag130
ag131
ag132
ag133
ag134
as(g349
g5
tp670
(lp671
g353
ag354
ag355
as(S'eu'
p672
S'pm'
p673
tp674
(lp675
S'EU'
p676
as(S'vad'
p677
S'pn'
p678
tp679
(lp680
S'what'
p681
as(S'halkat'
p682
S'vb'
p683
tp684
(lp685
S'slip'
p686
as(S'garantera'
p687
g5
tp688
(lp689
S'guarantee'
p690
as(S'kan'
p691
S'vb'
p692
tp693
(lp694
S'can'
p695
aS'can'
p696
aS'know'
p697
as(S'upp'
p698
g5
tp699
(lp700
S'open'
p701
aS'up'
p702
as(S'ska'
p703
S'vb'
p704
tp705
(lp706
S'have to'
p707
aS'shall'
p708
aS'must'
p709
aS'shall'
p710
aS'will'
p711
as(S'anv\xc3\xa4nder'
p712
S'vb'
p713
tp714
(lp715
S'employ'
p716
aS'use'
p717
aS'carry'
p718
aS'utilize'
p719
aS'wear'
p720
as(S'medlemsstater'
p721
S'nn'
p722
tp723
(lp724
S'member'
p725
as(S'avg\xc3\xb6rande'
p726
g5
tp727
(lp728
S'conclusion'
p729
aS'settlement'
p730
aS'decision'
p731
ag229
ag230
as(S'f\xc3\xb6r'
p732
S'pp'
p733
tp734
(lp735
S'by'
p736
aS'for'
p737
aS'of'
p738
aS'to'
p739
as(S'm\xc3\xb6jligheter'
p740
g5
tp741
(lp742
S'possibility'
p743
as(S'anser'
p744
g5
tp745
(lp746
S'consider'
p747
aS'regard'
p748
as(S'speciella'
p749
g5
tp750
(lp751
S'special'
p752
as(S'konsumentlagstiftningen'
p753
g5
tp754
(lp755
S'consumer legislation'
p756
as(S'anv\xc3\xa4ndarna'
p757
g5
tp758
(lp759
S'users'
p760
as(S'ansvar'
p761
g5
tp762
(lp763
S'responsibility'
p764
aS'liability'
p765
as(S'internetbaserade'
p766
g5
tp767
(lp768
S'internet-based'
p769
as(g185
S'vb'
p770
tp771
(lp772
g188
as(S'att'
p773
S'ie'
p774
tp775
(lp776
S'to'
p777
as(g327
g5
tp778
(lp779
g331
ag332
as(S'europa'
p780
S'pm'
p781
tp782
(lp783
S'europe'
p784
as(S'\xc3\xa4n'
p785
S'ab'
p786
tp787
(lp788
S'yet'
p789
aS'still'
p790
aS'ever'
p791
as(S'eftersom'
p792
S'kn'
p793
tp794
(lp795
S'as'
p796
aS'because'
p797
aS'seeing that'
p798
aS'since'
p799
as(S'n\xc3\xb6dv\xc3\xa4ndig'
p800
S'jj'
p801
tp802
(lp803
S'necessary'
p804
as(S'skall'
p805
g5
tp806
(lp807
S'barking'
p808
aS'bark'
p809
aS'will'
p810
aS'shall'
p811
aS'must'
p812
aS'have to'
p813
as(S'dynamiska'
p814
g5
tp815
(lp816
S'dynamic'
p817
as(g792
g5
tp818
(lp819
g796
ag797
ag798
ag799
as(S'v\xc3\xa4rld'
p820
S'nn'
p821
tp822
(lp823
S'world'
p824
as(S'f\xc3\xb6renkla'
p825
S'vb'
p826
tp827
(lp828
S'simplify'
p829
as(g254
S'jj'
p830
tp831
(lp832
g257
as(S'visst'
p833
S'ab'
p834
tp835
(lp836
S'certainly'
p837
aS'probably'
p838
as(S'sina'
p839
g5
tp840
(lp841
S'his'
p842
aS'one'
p843
aS'her'
p844
aS'its'
p845
aS'theirs'
p846
ag315
ag316
ag317
as(S'handel'
p847
g5
tp848
(lp849
S'commerce'
p850
aS'trade'
p851
aS'business'
p852
aS'shop'
p853
as(S's\xc3\xa4tt'
p854
S'nn'
p855
tp856
(lp857
S'manner'
p858
aS'way'
p859
as(S'e-handelsm\xc3\xb6jligheterna'
p860
S'nn'
p861
tp862
(lp863
S'E-Commerce Opportunities'
p864
as(S'tillg\xc3\xa5ng'
p865
S'nn'
p866
tp867
(lp868
S'access'
p869
aS'supply'
p870
aS'asset'
p871
as(S'dessa'
p872
g548
tp873
(lp874
S'these'
p875
aS'this'
p876
as(S'm\xc3\xa5ste'
p877
g5
tp878
(lp879
S'must'
p880
aS'must'
p881
as(S'balans'
p882
S'nn'
p883
tp884
(lp885
S'balance'
p886
as(S'lista'
p887
S'nn'
p888
tp889
(lp890
S'list'
p891
as(S'n\xc3\xa4tet'
p892
g5
tp893
(lp894
S'net'
p895
as(g854
g5
tp896
(lp897
g858
aS'place'
p898
aS'put'
p899
aS'set'
p900
aS'plant'
p901
aS'compose'
p902
aS'set'
p903
ag859
as(S'utanf\xc3\xb6r'
p904
S'ab'
p905
tp906
(lp907
S'outside'
p908
as(S'inte'
p909
g451
tp910
(lp911
S'not'
p912
as(g526
g5
tp913
(lp914
g530
ag531
ag532
as(S'bara'
p915
S'kn'
p916
tp917
(lp918
S'if'
p919
as(S'avancera'
p920
S'vb'
p921
tp922
(lp923
S'advance'
p924
as(S'visst'
p925
g5
tp926
(lp927
S'certain'
p928
ag837
ag838
as(S'vart'
p929
S'vb'
p930
tp931
(lp932
S'was'
p933
as(S'och'
p934
g5
tp935
(lp936
S'and'
p937
as(S'elektroniska'
p938
g5
tp939
(lp940
S'electronic'
p941
as(S'dem'
p942
g5
tp943
(lp944
S'them'
p945
as(S'f\xc3\xb6rvisso'
p946
g5
tp947
(lp948
S'assuredly'
p949
aS'certainly'
p950
as(S'genomf\xc3\xb6randebest\xc3\xa4mmelser'
p951
S'pp'
p952
tp953
(lp954
S'implementing'
p955
as(S'gr\xc3\xa4ns\xc3\xb6verskridande'
p956
S'vb'
p957
tp958
(lp959
S'crossborder'
p960
as(S'huvuddokumentet'
p961
S'nn'
p962
tp963
(lp964
S'main document'
p965
as(S'med'
p966
S'nn'
p967
tp968
(lp969
S'runner'
p970
as(g687
S'vb'
p971
tp972
(lp973
g690
as(S'vad'
p974
g5
tp975
(lp976
S'appeal'
p977
aS'bet'
p978
ag310
ag681
as(S'm\xc3\xb6jlig'
p979
g5
tp980
(lp981
S'possible'
p982
as(S's\xc3\xa5dant'
p983
S'pn'
p984
tp985
(lp986
S'such'
p987
as(S'med'
p988
S'ab'
p989
tp990
(lp991
S'too'
p992
aS'with'
p993
as(g761
S'nn'
p994
tp995
(lp996
g764
ag765
as(S'efter'
p997
S'ab'
p998
tp999
(lp1000
S'after'
p1001
aS'next'
p1002
aS'following'
p1003
as(g65
S'vb'
p1004
tp1005
(lp1006
g68
ag69
ag70
ag71
ag72
ag73
as(g744
S'vb'
p1007
tp1008
(lp1009
g747
ag748
as(g81
g5
tp1010
(lp1011
g85
as(g496
g5
tp1012
(lp1013
g500
as(S'utan'
p1014
S'ab'
p1015
tp1016
(lp1017
g5
as(g318
S'nn'
p1018
tp1019
(lp1020
g321
ag322
as(S'direktiv'
p1021
S'nn'
p1022
tp1023
(lp1024
S'directive'
p1025
aS'instruction'
p1026
as(g501
g5
tp1027
(lp1028
g505
ag506
ag507
as(S'tv\xc3\xa5'
p1029
S'vb'
p1030
tp1031
(lp1032
S'wash'
p1033
as(S'som'
p1034
g5
tp1035
(lp1036
S'as'
p1037
aS'who'
p1038
aS'whom'
p1039
as(S'aff\xc3\xa4rsstrukturerna'
p1040
g5
tp1041
(lp1042
S'commercial structures'
p1043
as(S'strasbourg'
p1044
g5
tp1045
(lp1046
S'strasbourg'
p1047
as(g721
g5
tp1048
(lp1049
g725
as(S'tar'
p1050
S'vb'
p1051
tp1052
(lp1053
S'take'
p1054
aS'bring'
p1055
aS'grab'
p1056
aS'touch'
p1057
as(S'av'
p1058
g5
tp1059
(lp1060
S'at'
p1061
aS'by'
p1062
aS'of'
p1063
aS'off'
p1064
aS'down'
p1065
as(S'e-handeln'
p1066
g5
tp1067
(lp1068
S'E-Commerce'
p1069
as(S'oss'
p1070
S'pn'
p1071
tp1072
(lp1073
S'us'
p1074
aS'we'
p1075
as(g98
S'vb'
p1076
tp1077
(lp1078
g101
ag102
as(S'fr\xc3\xa5gan'
p1079
g5
tp1080
(lp1081
S'question'
p1082
aS'matter'
p1083
as(g382
S'ab'
p1084
tp1085
(lp1086
g385
ag386
ag387
ag388
as(g42
S'pn'
p1087
tp1088
(lp1089
g45
ag46
ag47
ag48
ag49
as(S'betalningsf\xc3\xb6rfaranden'
p1090
S'jj'
p1091
tp1092
(lp1093
S'payment procedures'
p1094
as(S'einitiativet'
p1095
g861
tp1096
(lp1097
S'e-initiative'
p1098
as(S'vara'
p1099
S'nn'
p1100
tp1101
(lp1102
S'goods'
p1103
aS'commodity'
p1104
as(S'inom'
p1105
S'pp'
p1106
tp1107
(lp1108
S'in'
p1109
aS'within'
p1110
aS'within'
p1111
as(S'\xc3\xb6ver'
p1112
S'pp'
p1113
tp1114
(lp1115
S'about'
p1116
aS'over'
p1117
aS'across'
p1118
aS'by way of'
p1119
aS'above'
p1120
as(g169
S'vb'
p1121
tp1122
(lp1123
g172
as(g618
g5
tp1124
(lp1125
g622
as(S'via'
p1126
S'pp'
p1127
tp1128
(lp1129
S'via'
p1130
as(S'ledamot'
p1131
g5
tp1132
(lp1133
S'member'
p1134
as(S'\xc3\xa5ret'
p1135
S'nn'
p1136
tp1137
(lp1138
S'year'
p1139
as(S'\xc3\xa5r'
p1140
g5
tp1141
(lp1142
S'year'
p1143
as(S'framtiden'
p1144
g5
tp1145
(lp1146
S'future'
p1147
as(S'onlinelagring'
p1148
g5
tp1149
(lp1150
S'online storage nn'
p1151
as(g636
g5
tp1152
(lp1153
g640
as(S's\xc3\xa4kras'
p1154
g5
tp1155
(lp1156
S'secured'
p1157
as(S'finnas'
p1158
g5
tp1159
(lp1160
S'am'
p1161
aS'is'
p1162
aS'are'
p1163
as(g164
S'nn'
p1164
tp1165
(lp1166
g167
ag168
as(g258
S'jj'
p1167
tp1168
(lp1169
g261
ag262
ag263
ag264
as(S'm\xc3\xa5ste'
p1170
S'vb'
p1171
tp1172
(lp1173
g881
as(S'\xc3\xb6nskem\xc3\xa5len'
p1174
S'nn'
p1175
tp1176
(lp1177
S'desire'
p1178
aS'wish'
p1179
as(S'med'
p1180
S'pp'
p1181
tp1182
(lp1183
S'for'
p1184
aS'about'
p1185
aS'with'
p1186
as(S'p\xc3\xa5verka'
p1187
g5
tp1188
(lp1189
S'influence'
p1190
aS'affect'
p1191
as(S'ni'
p1192
S'pn'
p1193
tp1194
(lp1195
S'you'
p1196
as(S's\xc3\xa4tt'
p1197
S'vb'
p1198
tp1199
(lp1200
g898
ag899
ag900
ag901
ag902
ag903
as(S'vilket'
p1201
g5
tp1202
(lp1203
S'what'
p1204
aS'which'
p1205
aS'who'
p1206
as(S'chans'
p1207
S'nn'
p1208
tp1209
(lp1210
S'chance'
p1211
as(S'r\xc3\xa4ttigheter'
p1212
S'nn'
p1213
tp1214
(lp1215
S'right'
p1216
as(S'f\xc3\xb6r'
p1217
S'vb'
p1218
tp1219
(lp1220
S'lead'
p1221
aS'conduct'
p1222
aS'transport'
p1223
as(S'handelssystem'
p1224
g5
tp1225
(lp1226
S'trading'
p1227
as(g892
S'nn'
p1228
tp1229
(lp1230
g895
as(g10
g5
tp1231
(lp1232
g14
ag933
aS'where'
p1233
aS'where'
p1234
as(S'\xc3\xb6ver'
p1235
S'ab'
p1236
tp1237
(lp1238
S'over'
p1239
aS'more than'
p1240
aS'over'
p1241
aS'past'
p1242
as(S'systemet'
p1243
S'nn'
p1244
tp1245
(lp1246
S'system'
p1247
as(S'v\xc3\xa4xa'
p1248
S'vb'
p1249
tp1250
(lp1251
S'grow'
p1252
as(g1201
S'pn'
p1253
tp1254
(lp1255
g1204
ag1205
ag1206
as(S'f\xc3\xa5'
p1256
g5
tp1257
(lp1258
S'few'
p1259
ag568
ag569
ag570
ag571
as(S'snabbare'
p1260
S'nn'
p1261
tp1262
(lp1263
S'faster'
p1264
as(S'fortbildningsprogram'
p1265
g5
tp1266
(lp1267
S'training programs'
p1268
as(S'de'
p1269
S'pn'
p1270
tp1271
(lp1272
S'it'
p1273
aS'he'
p1274
aS'she'
p1275
aS'that'
p1276
as(S'direktivet'
p1277
g5
tp1278
(lp1279
S'directive'
p1280
aS'instruction'
p1281
as(S'fungera'
p1282
S'vb'
p1283
tp1284
(lp1285
S'act'
p1286
aS'serve as'
p1287
aS'function'
p1288
aS'work'
p1289
as(S'vart'
p1290
S'nn'
p1291
tp1292
(lp1293
g1234
as(S'standardisera'
p1294
g5
tp1295
(lp1296
S'standardize'
p1297
as(S'mina'
p1298
S'nn'
p1299
tp1300
(lp1301
S'mine'
p1302
as(g50
g5
tp1303
(lp1304
g54
ag55
as(g839
S'pn'
p1305
tp1306
(lp1307
g842
ag843
ag844
ag845
ag846
as(S'\xc3\xb6verhuvudtaget'
p1308
g5
tp1309
(lp1310
S'on the whole'
p1311
aS'At all'
p1312
as(S'f\xc3\xb6rst\xc3\xa4rka'
p1313
g5
tp1314
(lp1315
S'reinforce'
p1316
aS'strengthen'
p1317
as(g591
S'vb'
p1318
tp1319
(lp1320
g594
as(g609
g5
tp1321
(lp1322
g613
as(g646
S'pn'
p1323
tp1324
(lp1325
g649
as(S's\xc3\xa5som'
p1326
g5
tp1327
(lp1328
S'as'
p1329
as(S'en'
p1330
S'nn'
p1331
tp1332
(lp1333
S'action'
p1334
aS'juniper'
p1335
as(S'f\xc3\xb6retag'
p1336
S'nn'
p1337
tp1338
(lp1339
S'business'
p1340
aS'enterprise'
p1341
aS'undertaking'
p1342
aS'company'
p1343
as(g983
g5
tp1344
(lp1345
g987
as(S'tydliga'
p1346
g5
tp1347
(lp1348
S'clear'
p1349
aS'legible'
p1350
as(g1265
S'nn'
p1351
tp1352
(lp1353
g1268
as(S'efter'
p1354
S'kn'
p1355
tp1356
(lp1357
S'after'
p1358
as(S'fr\xc3\xa5n'
p1359
S'pp'
p1360
tp1361
(lp1362
S'from'
p1363
as(g1354
g5
tp1364
(lp1365
g1358
aS'after'
p1366
aS'later'
p1367
ag1001
ag1002
ag1003
aS'for'
p1368
as(S'ett'
p1369
g5
tp1370
(lp1371
S'a'
p1372
aS'an'
p1373
aS'one'
p1374
as(S'anges'
p1375
g5
tp1376
(lp1377
S'specified'
p1378
as(S'en'
p1379
S'rg'
p1380
tp1381
(lp1382
S'one'
p1383
as(g1095
g5
tp1384
(lp1385
g1098
as(g1256
S'pn'
p1386
tp1387
(lp1388
g1259
as(g691
g5
tp1389
(lp1390
g695
ag696
ag697
as(S'granskning'
p1391
g5
tp1392
(lp1393
S'scrutiny'
p1394
aS'survey'
p1395
as(S'skatteinstrumenten'
p1396
S'nn'
p1397
tp1398
(lp1399
S'tax instruments'
p1400
as(g753
S'nn'
p1401
tp1402
(lp1403
g756
as(g323
S'nn'
p1404
tp1405
(lp1406
g326
as(S'kommissionen'
p1407
S'nn'
p1408
tp1409
(lp1410
S'commission'
p1411
as(g1224
S'nn'
p1412
tp1413
(lp1414
g1227
as(S'e-handelsdirektivet'
p1415
g5
tp1416
(lp1417
S'E-Commerce Directive'
p1418
as(S'vid'
p1419
g5
tp1420
(lp1421
S'at'
p1422
aS'at'
p1423
aS'about'
p1424
aS'to'
p1425
ag459
as(S'erk\xc3\xa4nnande'
p1426
g5
tp1427
(lp1428
S'acknowledgement'
p1429
aS'recognition'
p1430
aS'admission'
p1431
aS'confession'
p1432
as(g547
g5
tp1433
(lp1434
g551
as(S'den'
p1435
S'nn'
p1436
tp1437
(lp1438
g586
ag587
as(S'\xc3\xa5tg\xc3\xa4rder'
p1439
g5
tp1440
(lp1441
S'measure'
p1442
as(g1415
S'nn'
p1443
tp1444
(lp1445
g1418
as(S'b\xc3\xa4ttre'
p1446
S'jj'
p1447
tp1448
(lp1449
S'good'
p1450
aS'excellent'
p1451
aS'fine'
p1452
aS'better'
p1453
as(S'ihop'
p1454
S'ab'
p1455
tp1456
(lp1457
S'together'
p1458
as(S'garantier'
p1459
g5
tp1460
(lp1461
S'warranty'
p1462
aS'guarantee'
p1463
as(g920
g5
tp1464
(lp1465
g924
as(g698
S'ab'
p1466
tp1467
(lp1468
g701
ag702
as(g521
S'jj'
p1469
tp1470
(lp1471
g524
ag525
as(S'det'
p1472
S'article'
p1473
tp1474
(lp1475
S'the'
p1476
aS'that'
p1477
as(S'alla'
p1478
g5
tp1479
(lp1480
S'all'
p1481
aS'everyone'
p1482
aS'all'
p1483
aS'everybody'
p1484
as(S'fr\xc3\xa5ga'
p1485
S'nn'
p1486
tp1487
(lp1488
S'question'
p1489
aS'matter'
p1490
as(S'tv\xc3\xa5'
p1491
S'rg'
p1492
tp1493
(lp1494
S'two'
p1495
as(S'f\xc3\xb6r'
p1496
g5
tp1497
(lp1498
S'because'
p1499
ag736
ag737
ag738
ag739
aS'in front of'
p1500
aS'too'
p1501
ag1221
ag1222
ag1223
as(g1396
g5
tp1502
(lp1503
g1400
as(g364
S'jj'
p1504
tp1505
(lp1506
g367
ag368
ag369
as(g29
g5
tp1507
(lp1508
g33
ag34
ag35
ag36
aS'one'
p1509
as(g1187
S'vb'
p1510
tp1511
(lp1512
g1190
ag1191
as(g1050
g5
tp1513
(lp1514
g1054
ag1055
ag1056
ag1057
as(S'g\xc3\xa4ller'
p1515
g5
tp1516
(lp1517
S'be valid'
p1518
aS'be in effect'
p1519
aS'pertain to'
p1520
aS'apply'
p1521
aS'concern'
p1522
as(S'skydd'
p1523
g5
tp1524
(lp1525
S'defence'
p1526
aS'security'
p1527
aS'shelter'
p1528
aS'protection'
p1529
as(S'form'
p1530
g5
tp1531
(lp1532
S'form'
p1533
aS'form'
p1534
aS'mould'
p1535
aS'shape'
p1536
as(S'viss'
p1537
g5
tp1538
(lp1539
S'certain'
p1540
as(g766
g451
tp1541
(lp1542
g769
as(S'antagna'
p1543
g994
tp1544
(lp1545
S'adopted'
p1546
as(S'd\xc3\xa4rtill'
p1547
S'ab'
p1548
tp1549
(lp1550
S'to that'
p1551
aS'besides'
p1552
as(S'st\xc3\xb6der'
p1553
S'vb'
p1554
tp1555
(lp1556
S'support'
p1557
aS'steady'
p1558
as(g663
g5
tp1559
(lp1560
g667
as(g302
S'nn'
p1561
tp1562
(lp1563
g305
as(S'jag'
p1564
S'pn'
p1565
tp1566
(lp1567
S'I'
p1568
as(S'ekonomin'
p1569
S'nn'
p1570
tp1571
(lp1572
S'economy'
p1573
as(g1066
S'nn'
p1574
tp1575
(lp1576
g1069
as(S'gjorts'
p1577
g5
tp1578
(lp1579
S'made'
p1580
as(S'beh\xc3\xb6ver'
p1581
S'vb'
p1582
tp1583
(lp1584
S'have to'
p1585
aS'need to'
p1586
aS'want'
p1587
aS'need'
p1588
aS'require'
p1589
as(S'm\xc3\xb6jligheten'
p1590
S'nn'
p1591
tp1592
(lp1593
S'possibility'
p1594
as(g399
g5
tp1595
(lp1596
g403
ag404
as(S'nya'
p1597
S'jj'
p1598
tp1599
(lp1600
S'new'
p1601
as(g1135
g5
tp1602
(lp1603
g1139
as(g235
S'nn'
p1604
tp1605
(lp1606
g238
as(S'yrkesutbildning'
p1607
g5
tp1608
(lp1609
S'training'
p1610
as(S'gruppera'
p1611
g5
tp1612
(lp1613
S'group'
p1614
as(S'andra'
p1615
g5
tp1616
(lp1617
S'another'
p1618
aS'other'
p1619
aS'other'
p1620
aS'present'
p1621
aS'advance'
p1622
aS'set forth'
p1623
aS'put forward'
p1624
aS'second'
p1625
as(S'det'
p1626
g5
tp1627
(lp1628
S'it'
p1629
aS'he'
p1630
aS'she'
p1631
aS'that'
p1632
ag1476
ag1477
as(S'elektronisk'
p1633
g5
tp1634
(lp1635
S'electronic'
p1636
as(S'h\xc3\xa4r'
p1637
S'ab'
p1638
tp1639
(lp1640
g538
as(g1260
g5
tp1641
(lp1642
g1264
as(S't\xc3\xa4ten'
p1643
S'nn'
p1644
tp1645
(lp1646
S'head'
p1647
as(S'som'
p1648
S'pn'
p1649
tp1650
(lp1651
g1038
ag1039
as(g1607
S'nn'
p1652
tp1653
(lp1654
g1610
as(g145
g5
tp1655
(lp1656
g149
aS'certainly'
p1657
aS'absolutely'
p1658
aS'definitely'
p1659
as(S'skapa'
p1660
g5
tp1661
(lp1662
S'cause'
p1663
aS'engender'
p1664
aS'produce'
p1665
aS'give rise to'
p1666
aS'make'
p1667
aS'create'
p1668
as(S'st\xc3\xb6ra'
p1669
S'vb'
p1670
tp1671
(lp1672
S'interrupt'
p1673
as(g476
g5
tp1674
(lp1675
g480
as(S'kontakter'
p1676
g268
tp1677
(lp1678
S'contact'
p1679
aS'socket'
p1680
aS'[electrical] outlet'
p1681
as(g956
g5
tp1682
(lp1683
g960
as(S'unionen'
p1684
S'nn'
p1685
tp1686
(lp1687
S'union'
p1688
as(S'f\xc3\xb6retag'
p1689
S'vb'
p1690
tp1691
(lp1692
S'perform'
p1693
aS'carry out'
p1694
aS'undertake'
p1695
as(g1154
g1076
tp1696
(lp1697
g1157
as(g1158
S'vb'
p1698
tp1699
(lp1700
g1161
ag1162
ag1163
as(S'diskuterade'
p1701
S'vb'
p1702
tp1703
(lp1704
S'discuss'
p1705
aS'debate'
p1706
aS'argue'
p1707
as(g872
g5
tp1708
(lp1709
g875
ag876
as(S'samst\xc3\xa4mmig'
p1710
g5
tp1711
(lp1712
S'unanimous'
p1713
aS'in accord'
p1714
as(S'genom'
p1715
g5
tp1716
(lp1717
S'through'
p1718
as(S'framsteg'
p1719
S'nn'
p1720
tp1721
(lp1722
S'progress'
p1723
as(S'man'
p1724
S'pn'
p1725
tp1726
(lp1727
g1509
as(g1021
g5
tp1728
(lp1729
g1025
ag1026
as(g1684
g5
tp1730
(lp1731
g1688
as(g946
S'ab'
p1732
tp1733
(lp1734
g949
ag950
as(g119
g5
tp1735
(lp1736
g123
ag124
as(S'beslutsamt'
p1737
S'jj'
p1738
tp1739
(lp1740
S'decisively'
p1741
aS'determined'
p1742
aS'resolute'
p1743
as(S'roll'
p1744
g5
tp1745
(lp1746
S'&quot;matter&quot;'
p1747
aS'r\xc3\xb4le'
p1748
aS'r\xc3\xb4le'
p1749
aS'part'
p1750
as(S'immateriella'
p1751
g1455
tp1752
(lp1753
S'immaterial'
p1754
as(S'varor'
p1755
g5
tp1756
(lp1757
S'goods'
p1758
aS'commodity'
p1759
as(g1446
g5
tp1760
(lp1761
g1450
ag1451
ag1452
ag1453
aS'excellently'
p1762
aS'well'
p1763
as(g860
g5
tp1764
(lp1765
g864
as(S's\xc3\xa5'
p1766
g5
tp1767
(lp1768
S'if so'
p1769
aS'in that case'
p1770
aS'so'
p1771
aS'so'
p1772
aS'thus'
p1773
aS'sow'
p1774
as(S'jag'
p1775
S'nn'
p1776
tp1777
(lp1778
S'ego'
p1779
as(g925
S'jj'
p1780
tp1781
(lp1782
g928
as(g344
g5
tp1783
(lp1784
g348
as(S'om'
p1785
S'pp'
p1786
tp1787
(lp1788
g389
ag390
ag391
ag392
as(g1282
g5
tp1789
(lp1790
g1286
ag1287
ag1288
ag1289
as(S'sade'
p1791
S'vb'
p1792
tp1793
(lp1794
S'said'
p1795
aS'say'
p1796
as(g1515
S'vb'
p1797
tp1798
(lp1799
g1518
ag1519
ag1520
ag1521
ag1522
as(g1294
S'vb'
p1800
tp1801
(lp1802
g1297
as(g415
S'nn'
p1803
tp1804
(lp1805
g418
ag419
ag420
ag421
ag422
as(g491
g5
tp1806
(lp1807
g495
ag777
as(S'handeln'
p1808
g5
tp1809
(lp1810
S'commerce'
p1811
aS'trade'
p1812
aS'business'
p1813
aS'shop'
p1814
as(g1369
S'article'
p1815
tp1816
(lp1817
g1372
ag1373
as(g21
g5
tp1818
(lp1819
g25
ag26
ag27
ag28
as(S'inf\xc3\xb6ra'
p1820
g5
tp1821
(lp1822
S'introduce'
p1823
as(S'noga'
p1824
S'ab'
p1825
tp1826
(lp1827
S'exactly'
p1828
aS'carefully'
p1829
as(S'\xc3\xa4n'
p1830
S'kn'
p1831
tp1832
(lp1833
S'than'
p1834
as(g865
g5
tp1835
(lp1836
g869
ag870
ag871
as(g623
S'nn'
p1837
tp1838
(lp1839
g626
ag627
as(g814
g212
tp1840
(lp1841
g817
as(S'kommer'
p1842
g5
tp1843
(lp1844
S'arouse'
p1845
aS'prompt'
p1846
aS'arrive'
p1847
aS'come'
p1848
aS'come from'
p1849
aS'will'
p1850
aS'be going to'
p1851
as(S'de'
p1852
S'article'
p1853
tp1854
(lp1855
S'the'
p1856
aS'that'
p1857
as(g1375
S'jj'
p1858
tp1859
(lp1860
g1378
as(g1597
g5
tp1861
(lp1862
g1601
as(g1590
g5
tp1863
(lp1864
g1594
as(g37
g5
tp1865
(lp1866
g41
as(S'en'
p1867
g5
tp1868
(lp1869
g1372
aS'an'
p1870
aS'about'
p1871
ag1334
ag1335
aS'one'
p1872
ag1383
as(g377
g5
tp1873
(lp1874
g381
aS'interested'
p1875
as(g1569
g5
tp1876
(lp1877
g1573
as(g1269
g5
tp1878
(lp1879
g1273
ag1274
ag1275
ag1276
ag1856
ag1857
as(g1751
g5
tp1880
(lp1881
g1754
as(g1719
g5
tp1882
(lp1883
g1723
as(S'utbildning'
p1884
g5
tp1885
(lp1886
S'education'
p1887
as(g1298
g5
tp1888
(lp1889
g1302
aS'my'
p1890
as(g1530
S'nn'
p1891
tp1892
(lp1893
g1533
ag1534
ag1535
ag1536
as(g1615
S'pn'
p1894
tp1895
(lp1896
g1618
ag1619
ag1620
as(S'tonvikten'
p1897
S'nn'
p1898
tp1899
(lp1900
S'stress'
p1901
as(S'f\xc3\xb6rtroende'
p1902
g5
tp1903
(lp1904
S'faith'
p1905
aS'confidence'
p1906
aS'trust'
p1907
as(g460
g5
tp1908
(lp1909
g464
ag465
ag466
ag467
ag468
as(g1669
g5
tp1910
(lp1911
g1673
as(g632
S'jj'
p1912
tp1913
(lp1914
g635
as(S'f\xc3\xb6rdelar'
p1915
g5
tp1916
(lp1917
S'benefit'
p1918
aS'advantage'
p1919
ag443
as(S'inneh\xc3\xa5lla'
p1920
S'vb'
p1921
tp1922
(lp1923
S'contain'
p1924
aS'withhold'
p1925
as(S'fr\xc3\xa4mst'
p1926
S'ab'
p1927
tp1928
(lp1929
g265
ag266
as(S'fr\xc3\xa4mja'
p1930
g5
tp1931
(lp1932
S'forward'
p1933
aS'further'
p1934
aS'promote'
p1935
as(g481
g5
tp1936
(lp1937
g485
as(g1459
S'nn'
p1938
tp1939
(lp1940
g1462
ag1463
as(S'vi'
p1941
S'pn'
p1942
tp1943
(lp1944
S'we'
p1945
as(g596
g5
tp1946
(lp1947
g600
as(g338
S'vb'
p1948
tp1949
(lp1950
g341
ag342
ag343
as(g1174
g5
tp1951
(lp1952
g1178
ag1179
as(S'n\xc3\xa4r'
p1953
S'kn'
p1954
tp1955
(lp1956
S'when'
p1957
as(S'ett'
p1958
S'rg'
p1959
tp1960
(lp1961
g1374
as(S'\xc3\xb6verensst\xc3\xa4mmer'
p1962
g5
tp1963
(lp1964
S'consistent'
p1965
as(g444
g5
tp1966
(lp1967
g448
ag449
as(S'liksom'
p1968
g5
tp1969
(lp1970
S'like'
p1971
aS'as'
p1972
ag243
ag244
as(S'utan'
p1973
S'kn'
p1974
tp1975
(lp1976
S'but'
p1977
as(g1407
g5
tp1978
(lp1979
g1411
as(S'stora'
p1980
g5
tp1981
(lp1982
S'large'
p1983
aS'big'
p1984
aS'great'
p1985
as(S's\xc3\xa4kerheten'
p1986
S'nn'
p1987
tp1988
(lp1989
S'certainty'
p1990
aS'safety'
p1991
aS'security'
p1992
as(g371
S'nn'
p1993
tp1994
(lp1995
g374
as(g1611
g957
tp1996
(lp1997
g1614
as(S'hindrar'
p1998
S'vb'
p1999
tp2000
(lp2001
S'prevent'
p2002
aS'hinder'
p2003
aS'check'
p2004
aS'restrain'
p2005
as(S'utveckling'
p2006
g5
tp2007
(lp2008
S'development'
p2009
aS'trend'
p2010
as(S'till\xc3\xa4mpningen'
p2011
S'nn'
p2012
tp2013
(lp2014
S'application'
p2015
as(g92
g5
tp2016
(lp2017
g96
aS'nourish'
p2018
ag97
ag1957
as(g805
S'nn'
p2019
tp2020
(lp2021
g808
ag809
ag810
ag811
ag812
ag813
as(g1577
g952
tp2022
(lp2023
g1580
as(S'f\xc3\xb6r'
p2024
S'ab'
p2025
tp2026
(lp2027
g1500
ag1501
as(S'arbetsstyrkan'
p2028
S'nn'
p2029
tp2030
(lp2031
S'labour (work) force'
p2032
as(g1744
S'nn'
p2033
tp2034
(lp2035
g1747
ag1748
ag1749
ag1750
as(S'ber\xc3\xa4ttigade'
p2036
S'jj'
p2037
tp2038
(lp2039
S'authorized'
p2040
aS'entitled'
p2041
aS'justified'
p2042
aS'legitimate'
p2043
as(S'verktyg'
p2044
S'nn'
p2045
tp2046
(lp2047
S'tool'
p2048
as(g276
g1261
tp2049
(lp2050
g279
ag280
ag281
ag282
as(g428
S'vb'
p2051
tp2052
(lp2053
g431
ag432
ag433
as(g1842
S'vb'
p2054
tp2055
(lp2056
g1845
ag1846
ag1847
ag1848
ag1849
ag1850
ag1851
as(S'begr\xc3\xa4nsning'
p2057
g5
tp2058
(lp2059
S'bounds'
p2060
aS'restriction'
p2061
aS'limitation'
p2062
as(g250
S'nn'
p2063
tp2064
(lp2065
g253
as(g1701
g5
tp2066
(lp2067
g1705
ag1706
ag1707
as(S'i'
p2068
S'ab'
p2069
tp2070
(lp2071
S'at'
p2072
aS'on'
p2073
as(S'vilja'
p2074
S'nn'
p2075
tp2076
(lp2077
g595
as(S'europeiska'
p2078
g5
tp2079
(lp2080
S'European'
p2081
as(g1131
S'nn'
p2082
tp2083
(lp2084
g1134
as(g1980
S'jj'
p2085
tp2086
(lp2087
g1983
ag1984
ag1985
as(g1359
g5
tp2088
(lp2089
g1363
as(g1755
S'nn'
p2090
tp2091
(lp2092
g1758
ag1759
as(g1496
S'kn'
p2093
tp2094
(lp2095
g1499
as(g1243
g5
tp2096
(lp2097
g1247
as(S'h\xc3\xb6rande'
p2098
g5
tp2099
(lp2100
S'domiciled'
p2101
as(S'utanf\xc3\xb6r'
p2102
S'pp'
p2103
tp2104
(lp2105
S'outside'
p2106
as(S'speciellt'
p2107
g5
tp2108
(lp2109
S'special'
p2110
as(S'intressen'
p2111
g5
tp2112
(lp2113
S'interest'
p2114
as(g1419
S'pp'
p2115
tp2116
(lp2117
g1422
ag1423
ag1424
ag1425
as(S'en'
p2118
S'pn'
p2119
tp2120
(lp2121
g1872
as(g1454
g5
tp2122
(lp2123
g1458
as(g1920
g5
tp2124
(lp2125
g1924
ag1925
as(S'komma'
p2126
S'vb'
p2127
tp2128
(lp2129
S'arouse'
p2130
aS'prompt'
p2131
aS'arrive'
p2132
aS'come'
p2133
aS'come from'
p2134
aS'will'
p2135
aS'be going to'
p2136
as(g267
g5
tp2137
(lp2138
g271
ag272
as(g2068
S'pp'
p2139
tp2140
(lp2141
S'as'
p2142
aS'at'
p2143
aS'in'
p2144
aS'for'
p2145
aS'on'
p2146
aS'of'
p2147
aS'to'
p2148
as(g1986
g5
tp2149
(lp2150
g1990
ag1991
ag1992
as(g2057
S'nn'
p2151
tp2152
(lp2153
g2060
ag2061
ag2062
as(S'av'
p2154
S'ab'
p2155
tp2156
(lp2157
g1064
ag1065
as(g951
g5
tp2158
(lp2159
g955
as(g539
g5
tp2160
(lp2161
g543
ag544
ag545
ag546
as(g882
g5
tp2162
(lp2163
g886
as(S'inr\xc3\xa4tta'
p2164
S'vb'
p2165
tp2166
(lp2167
S'establish'
p2168
aS'found'
p2169
aS'start'
p2170
aS'set up'
p2171
as(g1820
S'vb'
p2172
tp2173
(lp2174
g1823
as(g220
S'nn'
p2175
tp2176
(lp2177
g223
ag224
as(S'resebranschen'
p2178
S'nn'
p2179
tp2180
(lp2181
S'travel industry'
p2182
as(g2111
S'nn'
p2183
tp2184
(lp2185
g2114
as(g1346
S'jj'
p2186
tp2187
(lp2188
g1349
ag1350
as(g1676
g5
tp2189
(lp2190
g1679
ag1680
ag1681
as(S'under'
p2191
S'pp'
p2192
tp2193
(lp2194
S'beneath'
p2195
aS'below'
p2196
aS'during'
p2197
aS'under'
p2198
aS'in'
p2199
as(S'h\xc3\xa4nsyn'
p2200
g5
tp2201
(lp2202
S'consideration'
p2203
aS'respect'
p2204
as(S'intresserade'
p2205
S'jj'
p2206
tp2207
(lp2208
g1875
as(g2011
g5
tp2209
(lp2210
g2015
as(S'kvalifikationerna'
p2211
g5
tp2212
(lp2213
S'qualifications'
p2214
as(g1523
S'nn'
p2215
tp2216
(lp2217
g1526
ag1527
ag1528
ag1529
as(g961
g5
tp2218
(lp2219
g965
as(g820
g5
tp2220
(lp2221
g824
as(S's\xc3\xa5'
p2222
S'kn'
p2223
tp2224
(lp2225
g1771
as(S'senaste'
p2226
g1004
tp2227
(lp2228
S'last'
p2229
as(S'ge'
p2230
S'vb'
p2231
tp2232
(lp2233
S'give'
p2234
as(g1902
S'nn'
p2235
tp2236
(lp2237
g1905
ag1906
ag1907
as(g1710
S'jj'
p2238
tp2239
(lp2240
g1713
ag1714
as(g904
g5
tp2241
(lp2242
g908
ag2106
as(S'gladde'
p2243
g5
tp2244
(lp2245
S'delight'
p2246
aS'please'
p2247
aS'give pleasure'
p2248
aS'gave (sby) pleasure'
p2249
as(g552
S'ab'
p2250
tp2251
(lp2252
g555
ag556
as(g1830
g5
tp2253
(lp2254
g1834
ag789
ag790
ag791
as(g1326
S'ab'
p2255
tp2256
(lp2257
g1329
as(g1553
g5
tp2258
(lp2259
g1557
ag1558
as(S'ber\xc3\xa4ttigade'
p2260
g5
tp2261
(lp2262
S'authorize'
p2263
aS'entitle'
p2264
ag2040
ag2041
ag2042
ag2043
as(g1537
S'jj'
p2265
tp2266
(lp2267
g1540
as(S'inre'
p2268
S'nn'
p2269
tp2270
(lp2271
g370
as(g877
S'nn'
p2272
tp2273
(lp2274
g880
as(g800
g5
tp2275
(lp2276
g804
as(g150
S'ab'
p2277
tp2278
(lp2279
g153
ag154
ag155
as(g1791
g5
tp2280
(lp2281
g1795
ag1796
as(g580
S'pn'
p2282
tp2283
(lp2284
g583
ag584
ag585
ag588
as(S'datorernas'
p2285
S'nn'
p2286
tp2287
(lp2288
S'computers'
p2289
as(S'v\xc3\xa5r'
p2290
g5
tp2291
(lp2292
S'our'
p2293
aS'spring'
p2294
as(g1808
S'nn'
p2295
tp2296
(lp2297
g1811
ag1812
ag1813
ag1814
as(g979
S'jj'
p2298
tp2299
(lp2300
g982
as(S'mig'
p2301
S'pn'
p2302
tp2303
(lp2304
S'me'
p2305
aS'myself'
p2306
as(g1126
g5
tp2307
(lp2308
g1130
as(S'undantag'
p2309
S'nn'
p2310
tp2311
(lp2312
S'exception'
p2313
as(g1930
S'vb'
p2314
tp2315
(lp2316
g1933
ag1934
ag1935
as(S'noga'
p2317
g5
tp2318
(lp2319
S'careful'
p2320
ag1828
ag1829
as(g712
g5
tp2321
(lp2322
g716
ag717
ag718
ag719
ag720
as(g1491
g5
tp2323
(lp2324
g1495
ag1033
as(g2098
S'jj'
p2325
tp2326
(lp2327
g2101
as(S'undantag'
p2328
S'vb'
p2329
tp2330
(lp2331
S'exempt'
p2332
aS'except'
p2333
as(g825
g5
tp2334
(lp2335
g829
as(g1884
S'nn'
p2336
tp2337
(lp2338
g1887
as(S'bara'
p2339
S'ab'
p2340
tp2341
(lp2342
S'merely'
p2343
aS'only'
p2344
aS'just'
p2345
as(g641
g5
tp2346
(lp2347
g645
as(S'b\xc3\xa4ttre'
p2348
S'ab'
p2349
tp2350
(lp2351
g1762
ag1763
as(S'mellan'
p2352
g5
tp2353
(lp2354
S'between'
p2355
as(g1547
g5
tp2356
(lp2357
g1551
ag1552
as(g628
S'nn'
p2358
tp2359
(lp2360
g631
as(g2290
S'pn'
p2361
tp2362
(lp2363
g2293
as(S'e-handel'
p2364
g5
tp2365
(lp2366
S'E-Commerce'
p2367
as(g2211
S'nn'
p2368
tp2369
(lp2370
g2214
as(g847
S'nn'
p2371
tp2372
(lp2373
g850
ag851
ag852
ag853
as(S'andra'
p2374
S'vb'
p2375
tp2376
(lp2377
g1621
ag1622
ag1623
ag1624
as(S'l\xc3\xa4gger'
p2378
g5
tp2379
(lp2380
S'place'
p2381
aS'put'
p2382
aS'set'
p2383
aS'lay'
p2384
as(g1058
S'pp'
p2385
tp2386
(lp2387
g1061
ag1062
ag1063
as(g938
S'jj'
p2388
tp2389
(lp2390
g941
as(g1915
S'nn'
p2391
tp2392
(lp2393
g1918
ag1919
as(g2164
g5
tp2394
(lp2395
g2168
ag2169
ag2170
ag2171
as(g2285
g5
tp2396
(lp2397
g2289
as(g974
S'nn'
p2398
tp2399
(lp2400
g977
ag978
as(g56
g5
tp2401
(lp2402
g60
as(S'e-handelsmarknad'
p2403
S'nn'
p2404
tp2405
(lp2406
S'E-Commerce Market'
p2407
as(S'utforma'
p2408
g610
tp2409
(lp2410
S'design'
p2411
as(g572
g5
tp2412
(lp2413
g576
as(g508
g5
tp2414
(lp2415
g512
as(S'bara'
p2416
S'jj'
p2417
tp2418
(lp2419
S'naked'
p2420
aS'bare'
p2421
as(g1105
g5
tp2422
(lp2423
g1109
ag1110
ag1111
as(g1207
g5
tp2424
(lp2425
g1211
as(S'tekniska'
p2426
S'jj'
p2427
tp2428
(lp2429
S'[technically] adept'
p2430
aS'technical'
p2431
as(S'marknaden'
p2432
S'nn'
p2433
tp2434
(lp2435
S'market'
p2436
as(g1192
g5
tp2437
(lp2438
g1196
as(g533
S'nn'
p2439
tp2440
(lp2441
g536
ag537
as(g757
S'nn'
p2442
tp2443
(lp2444
g760
as(S'r\xc3\xa4ttm\xc3\xa4tiga'
p2445
g5
tp2446
(lp2447
S'rightful'
p2448
aS'lawful'
p2449
as(g2230
g5
tp2450
(lp2451
g2234
as(S's\xc3\xa5'
p2452
S'ab'
p2453
tp2454
(lp2455
g1772
ag1773
as(g135
g5
tp2456
(lp2457
g139
ag140
ag141
ag142
ag143
ag144
as(S'mer'
p2458
S'jj'
p2459
tp2460
(lp2461
S'more'
p2462
as(g2317
S'jj'
p2463
tp2464
(lp2465
g2320
as(g1867
S'article'
p2466
tp2467
(lp2468
g1372
ag1870
as(S'p\xc3\xa5'
p2469
S'pp'
p2470
tp2471
(lp2472
S'after'
p2473
aS'in'
p2474
aS'during'
p2475
aS'of'
p2476
aS'at'
p2477
aS'on'
p2478
as(g1044
S'jj'
p2479
tp2480
(lp2481
g1047
as(g1180
g5
tp2482
(lp2483
g1184
ag1185
ag970
ag992
ag993
ag1186
as(S'fr\xc3\xa5ga'
p2484
S'vb'
p2485
tp2486
(lp2487
S'ask'
p2488
as(g2364
S'nn'
p2489
tp2490
(lp2491
g2367
as(g1941
g5
tp2492
(lp2493
g1945
as(g672
g5
tp2494
(lp2495
g676
as(g1998
g5
tp2496
(lp2497
g2002
ag2003
ag2004
ag2005
as(S'forts\xc3\xa4tter'
p2498
g5
tp2499
(lp2500
S'continue'
p2501
aS'go on'
p2502
aS'keep on'
p2503
aS'carry on'
p2504
as(S'skydds\xc3\xa5tg\xc3\xa4rder'
p2505
g5
tp2506
(lp2507
S'protective'
p2508
as(g1633
S'jj'
p2509
tp2510
(lp2511
g1636
as(g15
S'nn'
p2512
tp2513
(lp2514
g18
ag19
ag20
as(S'vara'
p2515
g5
tp2516
(lp2517
S'am'
p2518
aS'are'
p2519
aS'is'
p2520
aS'be'
p2521
aS'last'
p2522
ag1103
ag1104
as(g2445
S'jj'
p2523
tp2524
(lp2525
g2448
ag2449
as(g423
g5
tp2526
(lp2527
g427
as(g1478
S'pn'
p2528
tp2529
(lp2530
g1481
ag1482
ag1483
ag1484
as(S'under'
p2531
S'nn'
p2532
tp2533
(lp2534
S'wonder'
p2535
as(g1112
g5
tp2536
(lp2537
g1116
ag1117
ag1118
ag1119
ag1120
ag1239
ag1240
ag1241
ag1242
as(g909
g5
tp2538
(lp2539
g912
as(g1144
S'nn'
p2540
tp2541
(lp2542
g1147
as(g2126
g5
tp2543
(lp2544
g2130
ag2131
ag2132
ag2133
ag2134
ag654
ag2135
ag2136
as(g934
S'kn'
p2545
tp2546
(lp2547
g937
as(S'n\xc3\xa4r'
p2548
S'vb'
p2549
tp2550
(lp2551
g2018
as(S'n\xc3\xb6dv\xc3\xa4ndigheten'
p2552
g5
tp2553
(lp2554
S'necessity'
p2555
as(S'mina'
p2556
S'pn'
p2557
tp2558
(lp2559
g1890
as(g2426
g5
tp2560
(lp2561
g2430
ag2431
as(S'konsumentskyddsdirektiv'
p2562
g5
tp2563
(lp2564
S'consumer protection directives'
p2565
as(S'mer'
p2566
S'ab'
p2567
tp2568
(lp2569
S'more'
p2570
aS'additional'
p2571
as(g2044
g5
tp2572
(lp2573
g2048
as(g231
S'vb'
p2574
tp2575
(lp2576
g234
as(g2309
g5
tp2577
(lp2578
g2313
ag2332
ag2333
as(g1040
S'nn'
p2579
tp2580
(lp2581
g1043
as(g410
g5
tp2582
(lp2583
g414
as(S'andra'
p2584
S'rg'
p2585
tp2586
(lp2587
g1625
as(g2200
S'nn'
p2588
tp2589
(lp2590
g2203
ag2204
as(g1079
S'nn'
p2591
tp2592
(lp2593
g1082
ag1083
as(g283
g5
tp2594
(lp2595
g287
ag288
as(g156
S'jj'
p2596
tp2597
(lp2598
g159
as(g2068
g5
tp2599
(lp2600
g2142
ag2143
ag2144
ag2145
ag2146
ag2147
ag2148
ag2072
ag2073
as(g1543
g5
tp2601
(lp2602
g1546
as(g1090
g5
tp2603
(lp2604
g1094
as(g1737
g5
tp2605
(lp2606
g1741
ag1742
ag1743
as(S'b\xc3\xb6r'
p2607
S'vb'
p2608
tp2609
(lp2610
S'ought to'
p2611
aS'should'
p2612
as(g1277
S'nn'
p2613
tp2614
(lp2615
g1280
ag1281
as(g2178
g5
tp2616
(lp2617
g2182
as(S'procent'
p2618
S'nn'
p2619
tp2620
(lp2621
S'per cent'
p2622
as(g289
S'nn'
p2623
tp2624
(lp2625
g292
as(g2078
S'jj'
p2626
tp2627
(lp2628
g2081
as(g1212
g5
tp2629
(lp2630
g1216
as(S'till'
p2631
g5
tp2632
(lp2633
S'another'
p2634
aS'more'
p2635
ag193
ag194
ag195
ag196
ag197
ag198
ag199
as(g2226
g5
tp2636
(lp2637
g2229
as(g2191
g5
tp2638
(lp2639
g2195
ag2196
ag2197
ag2198
ag2199
ag2535
as(g1766
S'pn'
p2640
tp2641
(lp2642
g1769
ag1770
as(g173
S'jj'
p2643
tp2644
(lp2645
g176
ag177
ag178
ag179
ag180
as(g2408
g5
tp2646
(lp2647
g2411
as(g207
g451
tp2648
(lp2649
g210
as(S'n\xc3\xa4tbutiker'
p2650
S'nn'
p2651
tp2652
(lp2653
S'online stores'
p2654
as(g1439
S'nn'
p2655
tp2656
(lp2657
g1442
as(g2260
S'vb'
p2658
tp2659
(lp2660
g2263
ag2264
as(g1248
g5
tp2661
(lp2662
g1252
as(g1968
S'kn'
p2663
tp2664
(lp2665
g1971
ag1972
as(g333
g5
tp2666
(lp2667
g337
as(g211
g5
tp2668
(lp2669
g215
as(S'slutits'
p2670
g5
tp2671
(lp2672
S'concluded'
p2673
as(g181
S'nn'
p2674
tp2675
(lp2676
g184
as(g887
g5
tp2677
(lp2678
g891
as(g1070
g5
tp2679
(lp2680
g1074
ag1075
as(g2670
g1261
tp2681
(lp2682
g2673
as(g2301
g5
tp2683
(lp2684
g2305
ag2306
as(g1643
g5
tp2685
(lp2686
g1647
as(g1148
S'kn'
p2687
tp2688
(lp2689
g1151
as(g486
g5
tp2690
(lp2691
g490
as(g1313
g619
tp2692
(lp2693
g1316
ag1317
as(S'distansavtal'
p2694
S'nn'
p2695
tp2696
(lp2697
S'distance contracts'
p2698
as(g1897
g5
tp2699
(lp2700
g1901
as(g2484
g5
tp2701
(lp2702
g2488
ag1489
ag1490
as(g298
S'ab'
p2703
tp2704
(lp2705
g301
as(g1308
S'ab'
p2706
tp2707
(lp2708
g1311
ag1312
as(g726
S'nn'
p2709
tp2710
(lp2711
g729
ag730
ag731
as(S'v\xc3\xa5r'
p2712
g1652
tp2713
(lp2714
g2294
as(g293
g5
tp2715
(lp2716
g297
as(g2694
g5
tp2717
(lp2718
g2698
as(g74
g5
tp2719
(lp2720
g78
ag79
ag80
as(g2515
S'vb'
p2721
tp2722
(lp2723
g2518
ag2519
ag2520
ag2521
ag2522
as(g1581
g5
tp2724
(lp2725
g1585
ag1586
ag1587
ag1588
ag1589
as(g2618
g5
tp2726
(lp2727
g2622
as(g557
S'vb'
p2728
tp2729
(lp2730
g560
ag561
ag562
ag563
as(g2505
g1261
tp2731
(lp2732
g2508
as(g2028
g5
tp2733
(lp2734
g2032
as(g1014
g5
tp2735
(lp2736
g5
ag1977
ag409
as(g394
g5
tp2737
(lp2738
g398
as(g942
g1853
tp2739
(lp2740
g945
as(S'den'
p2741
S'article'
p2742
tp2743
(lp2744
g589
ag590
as(S'vart'
p2745
S'ab'
p2746
tp2747
(lp2748
g1233
as(g1034
S'kn'
p2749
tp2750
(lp2751
g1037
as(g1962
S'jj'
p2752
tp2753
(lp2754
g1965
as(g2650
g5
tp2755
(lp2756
g2654
as(g2243
S'vb'
p2757
tp2758
(lp2759
g2246
ag2247
ag2248
ag2249
as(g1660
S'vb'
p2760
tp2761
(lp2762
g1663
ag1664
ag1665
ag1666
ag1667
ag1668
as(g358
g2479
tp2763
(lp2764
g361
ag362
ag363
as(S'absolut'
p2765
S'ab'
p2766
tp2767
(lp2768
g1657
ag1658
ag1659
as(g2352
S'pp'
p2769
tp2770
(lp2771
g2355
as(S'en'
p2772
S'ab'
p2773
tp2774
(lp2775
g1871
as(g2378
S'vb'
p2776
tp2777
(lp2778
g2381
ag2382
ag2383
ag2384
as(g1336
g5
tp2779
(lp2780
g1340
ag1341
ag1342
ag1343
ag1693
ag1694
ag1695
as(g2607
g5
tp2781
(lp2782
g2611
ag2612
as(g740
S'nn'
p2783
tp2784
(lp2785
g743
as(g2631
S'ab'
p2786
tp2787
(lp2788
g2634
ag2635
as(g2458
g5
tp2789
(lp2790
g2462
ag2570
ag2571
as(g2562
S'nn'
p2791
tp2792
(lp2793
g2565
as(g469
S'nn'
p2794
tp2795
(lp2796
g472
ag473
as(g450
g5
tp2797
(lp2798
g454
as(g2403
g5
tp2799
(lp2800
g2407
as(g1426
S'nn'
p2801
tp2802
(lp2803
g1429
ag1430
ag1431
ag1432
as(g655
g5
tp2804
(lp2805
g659
as(g2107
S'jj'
p2806
tp2807
(lp2808
g2110
as(S'efter'
p2809
S'pp'
p2810
tp2811
(lp2812
g1366
ag1367
ag1368
as(g216
g136
tp2813
(lp2814
g219
as(g682
g5
tp2815
(lp2816
g686
as(g703
g5
tp2817
(lp2818
g707
ag708
ag709
ag710
ag711
as(g1564
g5
tp2819
(lp2820
g1568
ag1779
as(g915
g5
tp2821
(lp2822
g919
ag2343
ag2344
ag2345
ag2420
ag2421
as(g1391
g2757
tp2823
(lp2824
g1394
ag1395
as(g1140
S'nn'
p2825
tp2826
(lp2827
g1143
as(g780
g5
tp2828
(lp2829
g784
as(g2006
S'nn'
p2830
tp2831
(lp2832
g2009
ag2010
as(g749
S'jj'
p2833
tp2834
(lp2835
g752
as(S's\xc3\xa5'
p2836
S'vb'
p2837
tp2838
(lp2839
g1774
as(g2552
S'nn'
p2840
tp2841
(lp2842
g2555
as(g2432
g5
tp2843
(lp2844
g2436
as(g2498
S'vb'
p2845
tp2846
(lp2847
g2501
ag2502
ag2503
ag2504
as(g1715
g952
tp2848
(lp2849
g1718
as(S'om'
p2850
g2687
tp2851
(lp2852
g393
as(g601
g5
tp2853
(lp2854
g605
as(g1626
S'pn'
p2855
tp2856
(lp2857
g1629
ag1630
ag1631
ag1632
as(g2469
g5
tp2858
(lp2859
g2473
ag520
ag2474
ag2475
ag2476
ag2477
ag2478
as.