ccollections
defaultdict
p0
(c__builtin__
list
p1
tp2
Rp3
(S'befolkningen'
p4
S''
p5
tp6
(lp7
S'people'
p8
aS'population'
p9
as(S'vart'
p10
S'pn'
p11
tp12
(lp13
S'every'
p14
as(S'anv\xc3\xa4ndningen'
p15
g5
tp16
(lp17
S'usage'
p18
aS'employment'
p19
aS'use'
p20
as(S'intar'
p21
S'vb'
p22
tp23
(lp24
S'occupy'
p25
aS'take'
p26
aS'partake of'
p27
aS'eat'
p28
as(S'man'
p29
S'nn'
p30
tp31
(lp32
S'husband'
p33
aS'man'
p34
aS'mane'
p35
aS'person'
p36
as(S'r\xc3\xa4ttighet'
p37
S'nn'
p38
tp39
(lp40
S'right'
p41
as(S'sin'
p42
g5
tp43
(lp44
S'his'
p45
aS'one'
p46
aS'her'
p47
aS'its'
p48
aS'theirs'
p49
as(S'fru'
p50
S'nn'
p51
tp52
(lp53
S'wife'
p54
aS'Mrs.'
p55
as(S'f\xc3\xb6rb\xc3\xa4ttra'
p56
S'vb'
p57
tp58
(lp59
S'improve'
p60
as(S'm\xc3\xb6jlighet'
p61
g5
tp62
(lp63
S'possibility'
p64
as(S'se'
p65
g5
tp66
(lp67
S'notice'
p68
aS'watch'
p69
aS'see'
p70
aS'look'
p71
aS'view'
p72
aS'perceive'
p73
as(S'samverkar'
p74
S'vb'
p75
tp76
(lp77
S'collaborate'
p78
aS'cooperate'
p79
aS'work together'
p80
as(S'tack'
p81
S'nn'
p82
tp83
(lp84
S'thanks'
p85
as(S'rent'
p86
S'jj'
p87
tp88
(lp89
S'clean'
p90
aS'pure'
p91
as(S'n\xc3\xa4r'
p92
S'ab'
p93
tp94
(lp95
S'near'
p96
aS'when'
p97
as(S's\xc3\xa4kerst\xc3\xa4lla'
p98
g5
tp99
(lp100
S'guarantee'
p101
aS'secure'
p102
as(g4
S'nn'
p103
tp104
(lp105
g8
ag9
as(S'plats'
p106
g5
tp107
(lp108
S'place'
p109
aS'position'
p110
aS'job'
p111
aS'room'
p112
as(S'utbildnings-'
p113
g5
tp114
(lp115
S'education-'
p116
as(S'tillg\xc3\xa4ngliga'
p117
S'jj'
p118
tp119
(lp120
S'available'
p121
aS'accessible'
p122
as(S'f\xc3\xb6rs\xc3\xa4kringar'
p123
S'nn'
p124
tp125
(lp126
S'assurance'
p127
aS'insurance'
p128
as(S'skydda'
p129
S'vb'
p130
tp131
(lp132
S'preserve'
p133
aS'protect'
p134
aS'cover'
p135
aS'secure'
p136
aS'shelter'
p137
aS'defend'
p138
as(S'blev'
p139
S'vb'
p140
tp141
(lp142
S'become'
p143
aS'get'
p144
aS'be'
p145
aS'was'
p146
aS'got'
p147
aS'became'
p148
as(S'absolut'
p149
S'jj'
p150
tp151
(lp152
S'absolute'
p153
as(S'rent'
p154
g5
tp155
(lp156
S'absolutely'
p157
aS'completely'
p158
aS'quite'
p159
ag90
ag91
as(S'f\xc3\xb6rra'
p160
g5
tp161
(lp162
S'former'
p163
as(S'tredje'
p164
g5
tp165
(lp166
S'third'
p167
as(S'teknikerna'
p168
g5
tp169
(lp170
S'engineer'
p171
aS'technician'
p172
as(S'stimulera'
p173
g5
tp174
(lp175
S'stimulate'
p176
as(S'egna'
p177
g5
tp178
(lp179
S'odd'
p180
aS'peculiar'
p181
aS'strange'
p182
aS'queer'
p183
aS'own'
p184
as(S'konsumenterna'
p185
g5
tp186
(lp187
S'consumer'
p188
as(S'st\xc3\xb6dja'
p189
g5
tp190
(lp191
S'supporting'
p192
as(S'till'
p193
S'pp'
p194
tp195
(lp196
S'into'
p197
aS'until'
p198
aS'to'
p199
aS'of'
p200
aS'for'
p201
aS'as'
p202
aS'to'
p203
as(S'regel'
p204
S'nn'
p205
tp206
(lp207
S'bolt'
p208
aS'custom'
p209
aS'ule'
p210
as(S'internetf\xc3\xb6retag'
p211
g5
tp212
(lp213
S'internet companies'
p214
as(S'd\xc3\xa4ribland'
p215
S'jj'
p216
tp217
(lp218
S'including'
p219
as(S'bredband'
p220
g5
tp221
(lp222
S'broadband'
p223
as(S'avtal'
p224
g5
tp225
(lp226
S'agreement'
p227
aS'contract'
p228
as(S'avg\xc3\xb6rande'
p229
S'jj'
p230
tp231
(lp232
S'decisive'
p233
aS'conclusive'
p234
as(S'spela'
p235
g5
tp236
(lp237
S'play'
p238
as(S'e-handelns'
p239
g5
tp240
(lp241
S'E-Commerce'
p242
as(S'liksom'
p243
S'ab'
p244
tp245
(lp246
S'so to speak'
p247
aS'as it were'
p248
as(S'v\xc3\xa4rldsomsp\xc3\xa4nnande'
p249
S'nn'
p250
tp251
(lp252
S'global'
p253
as(S'konsumenternas'
p254
g5
tp255
(lp256
S'consumer'
p257
as(S'lagliga'
p258
g5
tp259
(lp260
S'legal'
p261
as(S'fr\xc3\xa4mst'
p262
g5
tp263
(lp264
S'in front'
p265
aS'first'
p266
aS'foremost'
p267
aS'primary'
p268
aS'mainly'
p269
aS'foremost'
p270
as(S'kulturf\xc3\xb6rem\xc3\xa5l'
p271
S'nn'
p272
tp273
(lp274
S'artifacts'
p275
aS'cultural'
p276
as(g106
S'nn'
p277
tp278
(lp279
g109
ag110
ag111
ag112
as(S'skyddet'
p280
g5
tp281
(lp282
S'defence'
p283
aS'security'
p284
aS'shelter'
p285
aS'protection'
p286
as(S'kunna'
p287
S'vb'
p288
tp289
(lp290
S'can'
p291
aS'know'
p292
as(S'handlingsplanen'
p293
g5
tp294
(lp295
S'Action Plan'
p296
as(S'harmonisera'
p297
S'vb'
p298
tp299
(lp300
S'harmonise'
p301
as(S'nu'
p302
g5
tp303
(lp304
S'now'
p305
as(S'gemenskapsr\xc3\xa4tten'
p306
g5
tp307
(lp308
S'community law'
p309
as(S'vad'
p310
S'ab'
p311
tp312
(lp313
S'how'
p314
as(S'sina'
p315
S'vb'
p316
tp317
(lp318
S'run short'
p319
aS'become (run) dry'
p320
aS'dry up'
p321
as(S'data'
p322
g5
tp323
(lp324
S'computer'
p325
aS'data'
p326
as(S'huvud'
p327
g5
tp328
(lp329
S'head'
p330
as(S'\xc3\xb6nskem\xc3\xa5l'
p331
S'nn'
p332
tp333
(lp334
S'desire'
p335
aS'wish'
p336
as(S'v\xc3\xa4rldens'
p337
g5
tp338
(lp339
S"the world's"
p340
as(S'registrering'
p341
S'nn'
p342
tp343
(lp344
S'registration'
p345
as(S'ha'
p346
g5
tp347
(lp348
S'have'
p349
aS'possess'
p350
aS'be provided with'
p351
as(S'utnyttja'
p352
S'vb'
p353
tp354
(lp355
S'make use of'
p356
as(S'\xc3\xa4r'
p357
S'vb'
p358
tp359
(lp360
S'am'
p361
aS'are'
p362
aS'is'
p363
as(g249
g5
tp364
(lp365
g253
as(S'stort'
p366
g5
tp367
(lp368
S'large'
p369
aS'big'
p370
aS'great'
p371
as(S'inre'
p372
g5
tp373
(lp374
S'inner'
p375
aS'interior'
p376
aS'internal'
p377
aS'inside'
p378
as(S'konsument'
p379
g5
tp380
(lp381
S'consumer'
p382
as(g204
g5
tp383
(lp384
g208
ag209
ag210
as(S'intresserade'
p385
S'vb'
p386
tp387
(lp388
S'interest'
p389
as(S'om'
p390
g5
tp391
(lp392
S'about'
p393
aS'again'
p394
aS're-'
p395
aS'round'
p396
aS'by'
p397
aS'of'
p398
aS'about'
p399
aS'round'
p400
aS'if'
p401
as(S'exempelvis'
p402
S'ab'
p403
tp404
(lp405
S'for example'
p406
as(S'dialog'
p407
S'nn'
p408
tp409
(lp410
S'(dialog [US])'
p411
aS'dialogue'
p412
as(S'utan'
p413
S'pp'
p414
tp415
(lp416
S'without'
p417
as(S'system'
p418
S'nn'
p419
tp420
(lp421
S'system'
p422
as(S'tj\xc3\xa4nster'
p423
g5
tp424
(lp425
S'job'
p426
aS'post'
p427
aS'service'
p428
aS'duty'
p429
aS'favour'
p430
as(S'distansf\xc3\xb6rs\xc3\xa4ljning'
p431
S'nn'
p432
tp433
(lp434
S'distance sales'
p435
as(S'har'
p436
g5
tp437
(lp438
S'have'
p439
aS'possess'
p440
aS'be provided with'
p441
as(S'st\xc3\xa4rka'
p442
g5
tp443
(lp444
S'starch'
p445
aS'strengthen'
p446
as(S'f\xc3\xb6rdelar'
p447
S'vb'
p448
tp449
(lp450
S'divide'
p451
as(S'utvecklas'
p452
S'vb'
p453
tp454
(lp455
S'grow'
p456
aS'develop'
p457
as(S'internetleverant\xc3\xb6rernas'
p458
S'ab'
p459
tp460
(lp461
S'Internet Service Providers'
p462
as(S'vid'
p463
S'jj'
p464
tp465
(lp466
S'wide'
p467
as(S'allm\xc3\xa4nt'
p468
S'jj'
p469
tp470
(lp471
S'common'
p472
aS'general'
p473
aS'public'
p474
aS'vague'
p475
aS'generally'
p476
as(S'antal'
p477
g5
tp478
(lp479
S'quantity'
p480
aS'number'
p481
as(g117
g5
tp482
(lp483
g121
ag122
as(S'privatkopieringen'
p484
S'nn'
p485
tp486
(lp487
S'private copying'
p488
as(S'produkter'
p489
S'nn'
p490
tp491
(lp492
S'product'
p493
as(S'e-handla'
p494
S'vb'
p495
tp496
(lp497
S'engage in e-commerce'
p498
as(S'att'
p499
S'kn'
p500
tp501
(lp502
S'that'
p503
as(S'sammantr\xc3\xa4desperioden'
p504
S'nn'
p505
tp506
(lp507
S'session'
p508
as(S'\xc3\xa4ven'
p509
S'ab'
p510
tp511
(lp512
S'too'
p513
aS'even'
p514
aS'also'
p515
as(S'adekvata'
p516
S'jj'
p517
tp518
(lp519
S'adequate'
p520
as(g442
S'vb'
p521
tp522
(lp523
g445
ag446
as(S'p\xc3\xa5'
p524
S'ab'
p525
tp526
(lp527
S'at etc.'
p528
as(S'f\xc3\xb6rnuftig'
p529
g5
tp530
(lp531
S'reasonable'
p532
aS'sensible'
p533
as(S'tydligt'
p534
S'jj'
p535
tp536
(lp537
S'clear'
p538
aS'legible'
p539
aS'clearly'
p540
as(S'h\xc3\xa4r'
p541
g5
tp542
(lp543
S'army'
p544
aS'host'
p545
aS'here'
p546
as(S'g\xc3\xb6ra'
p547
S'vb'
p548
tp549
(lp550
S'cause'
p551
aS'make'
p552
aS'do'
p553
aS'make'
p554
as(S'denna'
p555
S'pn'
p556
tp557
(lp558
S'this'
p559
as(S'ocks\xc3\xa5'
p560
g5
tp561
(lp562
S'too'
p563
aS'also'
p564
as(S'satsa'
p565
g5
tp566
(lp567
S'stake'
p568
aS'back'
p569
aS'venture'
p570
aS'bet on'
p571
as(S'f\xc3\xa5'
p572
S'vb'
p573
tp574
(lp575
S'have'
p576
aS'may'
p577
aS'receive'
p578
aS'get'
p579
as(S'unionens'
p580
S'nn'
p581
tp582
(lp583
S'union'
p584
as(g164
S'rg'
p585
tp586
(lp587
g167
as(S'den'
p588
g5
tp589
(lp590
S'it'
p591
aS'he'
p592
aS'she'
p593
aS'portable computer'
p594
aS'laptop'
p595
aS'that'
p596
aS'the'
p597
aS'that'
p598
as(S'vilja'
p599
g5
tp600
(lp601
S'want'
p602
aS'will'
p603
as(S'\xc3\xa4ndringsf\xc3\xb6rslag'
p604
S'nn'
p605
tp606
(lp607
S'amendment proposal'
p608
as(S'dataskydd'
p609
S'nn'
p610
tp611
(lp612
S'data protection'
p613
as(g61
S'nn'
p614
tp615
(lp616
g64
as(S'utlandsbaserade'
p617
S'vb'
p618
tp619
(lp620
S'foreign-based'
p621
as(S'konsumentavtal'
p622
g5
tp623
(lp624
S'consumer contracts'
p625
as(S'f\xc3\xb6rsvaras'
p626
S'vb'
p627
tp628
(lp629
S'defended'
p630
as(S'regler'
p631
g5
tp632
(lp633
S'custom'
p634
aS'rule'
p635
as(S'strategi'
p636
g5
tp637
(lp638
S'strategy'
p639
as(S'vetenskapliga'
p640
g5
tp641
(lp642
S'scientific'
p643
as(S'vill'
p644
S'vb'
p645
tp646
(lp647
S'want'
p648
as(S'konsumentskydd'
p649
S'nn'
p650
tp651
(lp652
S'consumer protection'
p653
as(S'detta'
p654
g5
tp655
(lp656
S'this'
p657
as(S'komma'
p658
S'nn'
p659
tp660
(lp661
S'comma'
p662
as(S'typ'
p663
S'nn'
p664
tp665
(lp666
S'type'
p667
as(g622
S'nn'
p668
tp669
(lp670
g625
as(S'enligt'
p671
S'pp'
p672
tp673
(lp674
S'according to'
p675
as(g129
g5
tp676
(lp677
g133
ag134
ag135
ag136
ag137
ag138
as(g357
g5
tp678
(lp679
g361
ag362
ag363
as(S'eu'
p680
S'pm'
p681
tp682
(lp683
S'EU'
p684
as(S'vad'
p685
S'pn'
p686
tp687
(lp688
S'what'
p689
as(S'halkat'
p690
S'vb'
p691
tp692
(lp693
S'slip'
p694
as(S'garantera'
p695
g5
tp696
(lp697
S'guarantee'
p698
as(S'kan'
p699
S'vb'
p700
tp701
(lp702
S'can'
p703
aS'can'
p704
aS'know'
p705
as(S'upp'
p706
g5
tp707
(lp708
S'open'
p709
aS'up'
p710
as(S'ska'
p711
S'vb'
p712
tp713
(lp714
S'have to'
p715
aS'shall'
p716
aS'must'
p717
aS'shall'
p718
aS'will'
p719
as(S'anv\xc3\xa4nder'
p720
S'vb'
p721
tp722
(lp723
S'employ'
p724
aS'use'
p725
aS'carry'
p726
aS'utilize'
p727
aS'wear'
p728
as(S'medlemsstater'
p729
S'nn'
p730
tp731
(lp732
S'member'
p733
as(S'avg\xc3\xb6rande'
p734
g5
tp735
(lp736
S'conclusion'
p737
aS'settlement'
p738
aS'decision'
p739
ag233
ag234
as(S'f\xc3\xb6r'
p740
S'pp'
p741
tp742
(lp743
S'by'
p744
aS'for'
p745
aS'of'
p746
aS'to'
p747
as(S'm\xc3\xb6jligheter'
p748
g5
tp749
(lp750
S'possibility'
p751
as(S'anser'
p752
g5
tp753
(lp754
S'consider'
p755
aS'regard'
p756
as(S'speciella'
p757
g5
tp758
(lp759
S'special'
p760
as(S'konsumentlagstiftningen'
p761
g5
tp762
(lp763
S'consumer legislation'
p764
as(S'anv\xc3\xa4ndarna'
p765
g5
tp766
(lp767
S'users'
p768
as(S'ansvar'
p769
g5
tp770
(lp771
S'responsibility'
p772
aS'liability'
p773
as(S'internetbaserade'
p774
g5
tp775
(lp776
S'internet-based'
p777
as(g189
S'vb'
p778
tp779
(lp780
g192
as(S'e-initiativet'
p781
S'np'
p782
tp783
(lp784
S'the e-initiative nn'
p785
as(S'att'
p786
S'ie'
p787
tp788
(lp789
S'to'
p790
as(g331
g5
tp791
(lp792
g335
ag336
as(S'europa'
p793
S'pm'
p794
tp795
(lp796
S'europe'
p797
as(S'\xc3\xa4n'
p798
S'ab'
p799
tp800
(lp801
S'yet'
p802
aS'still'
p803
aS'ever'
p804
as(S'eftersom'
p805
S'kn'
p806
tp807
(lp808
S'as'
p809
aS'because'
p810
aS'seeing that'
p811
aS'since'
p812
as(S'n\xc3\xb6dv\xc3\xa4ndig'
p813
S'jj'
p814
tp815
(lp816
S'necessary'
p817
as(S'skall'
p818
g5
tp819
(lp820
S'barking'
p821
aS'bark'
p822
aS'will'
p823
aS'shall'
p824
aS'must'
p825
aS'have to'
p826
as(S'dynamiska'
p827
g5
tp828
(lp829
S'dynamic'
p830
as(g805
g5
tp831
(lp832
g809
ag810
ag811
ag812
as(S'v\xc3\xa4rld'
p833
S'nn'
p834
tp835
(lp836
S'world'
p837
as(S'f\xc3\xb6renkla'
p838
S'vb'
p839
tp840
(lp841
S'simplify'
p842
as(g258
S'jj'
p843
tp844
(lp845
g261
as(S'visst'
p846
S'ab'
p847
tp848
(lp849
S'certainly'
p850
aS'probably'
p851
as(S'sina'
p852
g5
tp853
(lp854
S'his'
p855
aS'one'
p856
aS'her'
p857
aS'its'
p858
aS'theirs'
p859
ag319
ag320
ag321
as(S'handel'
p860
g5
tp861
(lp862
S'commerce'
p863
aS'trade'
p864
aS'business'
p865
aS'shop'
p866
as(S's\xc3\xa4tt'
p867
S'nn'
p868
tp869
(lp870
S'manner'
p871
aS'way'
p872
as(S'e-handelsm\xc3\xb6jligheterna'
p873
S'nn'
p874
tp875
(lp876
S'E-Commerce Opportunities'
p877
as(S'tillg\xc3\xa5ng'
p878
S'nn'
p879
tp880
(lp881
S'access'
p882
aS'supply'
p883
aS'asset'
p884
as(S'dessa'
p885
g556
tp886
(lp887
S'these'
p888
aS'this'
p889
as(S'm\xc3\xa5ste'
p890
g5
tp891
(lp892
S'must'
p893
aS'must'
p894
as(S'balans'
p895
S'nn'
p896
tp897
(lp898
S'balance'
p899
as(S'lista'
p900
S'nn'
p901
tp902
(lp903
S'list'
p904
as(S'n\xc3\xa4tet'
p905
g5
tp906
(lp907
S'net'
p908
as(g867
g5
tp909
(lp910
g871
aS'place'
p911
aS'put'
p912
aS'set'
p913
aS'plant'
p914
aS'compose'
p915
aS'set'
p916
ag872
as(S'Cederschi\xc3\xb6ld'
p917
g5
tp918
(lp919
S'Cederschi\xc3\xb6ld'
p920
as(S'utanf\xc3\xb6r'
p921
S'ab'
p922
tp923
(lp924
S'outside'
p925
as(S'inte'
p926
g459
tp927
(lp928
S'not'
p929
as(g534
g5
tp930
(lp931
g538
ag539
ag540
as(S'bara'
p932
S'kn'
p933
tp934
(lp935
S'if'
p936
as(S'avancera'
p937
S'vb'
p938
tp939
(lp940
S'advance'
p941
as(S'visst'
p942
g5
tp943
(lp944
S'certain'
p945
ag850
ag851
as(S'vart'
p946
S'vb'
p947
tp948
(lp949
S'was'
p950
as(S'och'
p951
g5
tp952
(lp953
S'and'
p954
as(S'elektroniska'
p955
g5
tp956
(lp957
S'electronic'
p958
as(S'dem'
p959
g5
tp960
(lp961
S'them'
p962
as(S'f\xc3\xb6rvisso'
p963
g5
tp964
(lp965
S'assuredly'
p966
aS'certainly'
p967
as(S'genomf\xc3\xb6randebest\xc3\xa4mmelser'
p968
S'pp'
p969
tp970
(lp971
S'implementing'
p972
as(S'gr\xc3\xa4ns\xc3\xb6verskridande'
p973
S'vb'
p974
tp975
(lp976
S'crossborder'
p977
as(S'huvuddokumentet'
p978
S'nn'
p979
tp980
(lp981
S'main document'
p982
as(S'med'
p983
S'nn'
p984
tp985
(lp986
S'runner'
p987
as(g695
S'vb'
p988
tp989
(lp990
g698
as(S'vad'
p991
g5
tp992
(lp993
S'appeal'
p994
aS'bet'
p995
ag314
ag689
as(S'm\xc3\xb6jlig'
p996
g5
tp997
(lp998
S'possible'
p999
as(S's\xc3\xa5dant'
p1000
S'pn'
p1001
tp1002
(lp1003
S'such'
p1004
as(S'med'
p1005
S'ab'
p1006
tp1007
(lp1008
S'too'
p1009
aS'with'
p1010
as(g769
S'nn'
p1011
tp1012
(lp1013
g772
ag773
as(S'efter'
p1014
S'ab'
p1015
tp1016
(lp1017
S'after'
p1018
aS'next'
p1019
aS'following'
p1020
as(g65
S'vb'
p1021
tp1022
(lp1023
g68
ag69
ag70
ag71
ag72
ag73
as(g752
S'vb'
p1024
tp1025
(lp1026
g755
ag756
as(S'vare'
p1027
g5
tp1028
(lp1029
S'to'
p1030
aS'after'
p1031
aS'whether'
p1032
aS'neither'
p1033
aS'either'
p1034
as(g81
g5
tp1035
(lp1036
g85
as(g504
g5
tp1037
(lp1038
g508
as(S'utan'
p1039
S'ab'
p1040
tp1041
(lp1042
g5
as(g322
S'nn'
p1043
tp1044
(lp1045
g325
ag326
as(S'direktiv'
p1046
S'nn'
p1047
tp1048
(lp1049
S'directive'
p1050
aS'instruction'
p1051
as(g509
g5
tp1052
(lp1053
g513
ag514
ag515
as(S'tv\xc3\xa5'
p1054
S'vb'
p1055
tp1056
(lp1057
S'wash'
p1058
as(S'som'
p1059
g5
tp1060
(lp1061
S'as'
p1062
aS'who'
p1063
aS'whom'
p1064
as(S'aff\xc3\xa4rsstrukturerna'
p1065
g5
tp1066
(lp1067
S'commercial structures'
p1068
as(S'strasbourg'
p1069
g5
tp1070
(lp1071
S'strasbourg'
p1072
as(g729
g5
tp1073
(lp1074
g733
as(S'tar'
p1075
S'vb'
p1076
tp1077
(lp1078
S'take'
p1079
aS'bring'
p1080
aS'grab'
p1081
aS'touch'
p1082
as(S'av'
p1083
g5
tp1084
(lp1085
S'at'
p1086
aS'by'
p1087
aS'of'
p1088
aS'off'
p1089
aS'down'
p1090
as(S'e-handeln'
p1091
g5
tp1092
(lp1093
S'E-Commerce'
p1094
as(S'oss'
p1095
S'pn'
p1096
tp1097
(lp1098
S'us'
p1099
aS'we'
p1100
as(g1027
S'cc'
p1101
tp1102
(lp1103
g1030
ag1031
ag1032
ag1033
ag1034
as(g98
S'vb'
p1104
tp1105
(lp1106
g101
ag102
as(S'fr\xc3\xa5gan'
p1107
g5
tp1108
(lp1109
S'question'
p1110
aS'matter'
p1111
as(g390
S'ab'
p1112
tp1113
(lp1114
g393
ag394
ag395
ag396
as(g42
S'pn'
p1115
tp1116
(lp1117
g45
ag46
ag47
ag48
ag49
as(S'betalningsf\xc3\xb6rfaranden'
p1118
S'jj'
p1119
tp1120
(lp1121
S'payment procedures'
p1122
as(S'einitiativet'
p1123
g874
tp1124
(lp1125
S'e-initiative'
p1126
as(S'vara'
p1127
S'nn'
p1128
tp1129
(lp1130
S'goods'
p1131
aS'commodity'
p1132
as(S'inom'
p1133
S'pp'
p1134
tp1135
(lp1136
S'in'
p1137
aS'within'
p1138
aS'within'
p1139
as(S'\xc3\xb6ver'
p1140
S'pp'
p1141
tp1142
(lp1143
S'about'
p1144
aS'over'
p1145
aS'across'
p1146
aS'by way of'
p1147
aS'above'
p1148
as(g173
S'vb'
p1149
tp1150
(lp1151
g176
as(g626
g5
tp1152
(lp1153
g630
as(S'via'
p1154
S'pp'
p1155
tp1156
(lp1157
S'via'
p1158
as(S'ledamot'
p1159
g5
tp1160
(lp1161
S'member'
p1162
as(S'\xc3\xa5ret'
p1163
S'nn'
p1164
tp1165
(lp1166
S'year'
p1167
as(S'\xc3\xa5r'
p1168
g5
tp1169
(lp1170
S'year'
p1171
as(S'framtiden'
p1172
g5
tp1173
(lp1174
S'future'
p1175
as(S'onlinelagring'
p1176
g5
tp1177
(lp1178
S'online storage nn'
p1179
as(g644
g5
tp1180
(lp1181
g648
as(S's\xc3\xa4kras'
p1182
g5
tp1183
(lp1184
S'secured'
p1185
as(S'finnas'
p1186
g5
tp1187
(lp1188
S'am'
p1189
aS'is'
p1190
aS'are'
p1191
as(g168
S'nn'
p1192
tp1193
(lp1194
g171
ag172
as(g262
S'jj'
p1195
tp1196
(lp1197
g265
ag266
ag267
ag268
as(S'm\xc3\xa5ste'
p1198
S'vb'
p1199
tp1200
(lp1201
g894
as(S'\xc3\xb6nskem\xc3\xa5len'
p1202
S'nn'
p1203
tp1204
(lp1205
S'desire'
p1206
aS'wish'
p1207
as(S'med'
p1208
S'pp'
p1209
tp1210
(lp1211
S'for'
p1212
aS'about'
p1213
aS'with'
p1214
as(S'p\xc3\xa5verka'
p1215
g5
tp1216
(lp1217
S'influence'
p1218
aS'affect'
p1219
as(S'ni'
p1220
S'pn'
p1221
tp1222
(lp1223
S'you'
p1224
as(S's\xc3\xa4tt'
p1225
S'vb'
p1226
tp1227
(lp1228
g911
ag912
ag913
ag914
ag915
ag916
as(S'vilket'
p1229
g5
tp1230
(lp1231
S'what'
p1232
aS'which'
p1233
aS'who'
p1234
as(g917
g782
tp1235
(lp1236
g920
as(S'chans'
p1237
S'nn'
p1238
tp1239
(lp1240
S'chance'
p1241
as(S'r\xc3\xa4ttigheter'
p1242
S'nn'
p1243
tp1244
(lp1245
S'right'
p1246
as(S'f\xc3\xb6r'
p1247
S'vb'
p1248
tp1249
(lp1250
S'lead'
p1251
aS'conduct'
p1252
aS'transport'
p1253
as(S'handelssystem'
p1254
g5
tp1255
(lp1256
S'trading'
p1257
as(g905
S'nn'
p1258
tp1259
(lp1260
g908
as(g10
g5
tp1261
(lp1262
g14
ag950
aS'where'
p1263
aS'where'
p1264
as(S'\xc3\xb6ver'
p1265
S'ab'
p1266
tp1267
(lp1268
S'over'
p1269
aS'more than'
p1270
aS'over'
p1271
aS'past'
p1272
as(S'systemet'
p1273
S'nn'
p1274
tp1275
(lp1276
S'system'
p1277
as(S'v\xc3\xa4xa'
p1278
S'vb'
p1279
tp1280
(lp1281
S'grow'
p1282
as(g1229
S'pn'
p1283
tp1284
(lp1285
g1232
ag1233
ag1234
as(S'f\xc3\xa5'
p1286
g5
tp1287
(lp1288
S'few'
p1289
ag576
ag577
ag578
ag579
as(S'snabbare'
p1290
S'nn'
p1291
tp1292
(lp1293
S'faster'
p1294
as(S'fortbildningsprogram'
p1295
g5
tp1296
(lp1297
S'training programs'
p1298
as(S'de'
p1299
S'pn'
p1300
tp1301
(lp1302
S'it'
p1303
aS'he'
p1304
aS'she'
p1305
aS'that'
p1306
as(S'direktivet'
p1307
g5
tp1308
(lp1309
S'directive'
p1310
aS'instruction'
p1311
as(S'fungera'
p1312
S'vb'
p1313
tp1314
(lp1315
S'act'
p1316
aS'serve as'
p1317
aS'function'
p1318
aS'work'
p1319
as(S'vart'
p1320
S'nn'
p1321
tp1322
(lp1323
g1264
as(S'standardisera'
p1324
g5
tp1325
(lp1326
S'standardize'
p1327
as(S'mina'
p1328
S'nn'
p1329
tp1330
(lp1331
S'mine'
p1332
as(g50
g5
tp1333
(lp1334
g54
ag55
as(g852
S'pn'
p1335
tp1336
(lp1337
g855
ag856
ag857
ag858
ag859
as(S'\xc3\xb6verhuvudtaget'
p1338
g5
tp1339
(lp1340
S'on the whole'
p1341
aS'At all'
p1342
as(S'f\xc3\xb6rst\xc3\xa4rka'
p1343
g5
tp1344
(lp1345
S'reinforce'
p1346
aS'strengthen'
p1347
as(g599
S'vb'
p1348
tp1349
(lp1350
g602
as(g617
g5
tp1351
(lp1352
g621
as(g654
S'pn'
p1353
tp1354
(lp1355
g657
as(S's\xc3\xa5som'
p1356
g5
tp1357
(lp1358
S'as'
p1359
as(S'en'
p1360
S'nn'
p1361
tp1362
(lp1363
S'action'
p1364
aS'juniper'
p1365
as(S'f\xc3\xb6retag'
p1366
S'nn'
p1367
tp1368
(lp1369
S'business'
p1370
aS'enterprise'
p1371
aS'undertaking'
p1372
aS'company'
p1373
as(g1000
g5
tp1374
(lp1375
g1004
as(S'tydliga'
p1376
g5
tp1377
(lp1378
S'clear'
p1379
aS'legible'
p1380
as(g1295
S'nn'
p1381
tp1382
(lp1383
g1298
as(S'efter'
p1384
S'kn'
p1385
tp1386
(lp1387
S'after'
p1388
as(S'fr\xc3\xa5n'
p1389
S'pp'
p1390
tp1391
(lp1392
S'from'
p1393
as(g1384
g5
tp1394
(lp1395
g1388
aS'after'
p1396
aS'later'
p1397
ag1018
ag1019
ag1020
aS'for'
p1398
as(S'ett'
p1399
g5
tp1400
(lp1401
S'a'
p1402
aS'an'
p1403
aS'one'
p1404
as(S'anges'
p1405
g5
tp1406
(lp1407
S'specified'
p1408
as(S'en'
p1409
S'rg'
p1410
tp1411
(lp1412
S'one'
p1413
as(g337
S'nn'
p1414
tp1415
(lp1416
g340
as(g1123
g5
tp1417
(lp1418
g1126
as(g1286
S'pn'
p1419
tp1420
(lp1421
g1289
as(g699
g5
tp1422
(lp1423
g703
ag704
ag705
as(S'granskning'
p1424
g5
tp1425
(lp1426
S'scrutiny'
p1427
aS'survey'
p1428
as(S'skatteinstrumenten'
p1429
S'nn'
p1430
tp1431
(lp1432
S'tax instruments'
p1433
as(g761
S'nn'
p1434
tp1435
(lp1436
g764
as(g327
S'nn'
p1437
tp1438
(lp1439
g330
as(S'kommissionen'
p1440
S'nn'
p1441
tp1442
(lp1443
S'commission'
p1444
as(g1254
S'nn'
p1445
tp1446
(lp1447
g1257
as(S'e-handelsdirektivet'
p1448
g5
tp1449
(lp1450
S'E-Commerce Directive'
p1451
as(S'vid'
p1452
g5
tp1453
(lp1454
S'at'
p1455
aS'at'
p1456
aS'about'
p1457
aS'to'
p1458
ag467
as(S'erk\xc3\xa4nnande'
p1459
g5
tp1460
(lp1461
S'acknowledgement'
p1462
aS'recognition'
p1463
aS'admission'
p1464
aS'confession'
p1465
as(g555
g5
tp1466
(lp1467
g559
as(S'den'
p1468
S'nn'
p1469
tp1470
(lp1471
g594
ag595
as(S'\xc3\xa5tg\xc3\xa4rder'
p1472
g5
tp1473
(lp1474
S'measure'
p1475
as(g1448
S'nn'
p1476
tp1477
(lp1478
g1451
as(S'b\xc3\xa4ttre'
p1479
S'jj'
p1480
tp1481
(lp1482
S'good'
p1483
aS'excellent'
p1484
aS'fine'
p1485
aS'better'
p1486
as(S'ihop'
p1487
S'ab'
p1488
tp1489
(lp1490
S'together'
p1491
as(S'garantier'
p1492
g5
tp1493
(lp1494
S'warranty'
p1495
aS'guarantee'
p1496
as(g937
g5
tp1497
(lp1498
g941
as(g706
S'ab'
p1499
tp1500
(lp1501
g709
ag710
as(g529
S'jj'
p1502
tp1503
(lp1504
g532
ag533
as(S'det'
p1505
S'article'
p1506
tp1507
(lp1508
S'the'
p1509
aS'that'
p1510
as(S'alla'
p1511
g5
tp1512
(lp1513
S'all'
p1514
aS'everyone'
p1515
aS'all'
p1516
aS'everybody'
p1517
as(S'fr\xc3\xa5ga'
p1518
S'nn'
p1519
tp1520
(lp1521
S'question'
p1522
aS'matter'
p1523
as(S'tv\xc3\xa5'
p1524
S'rg'
p1525
tp1526
(lp1527
S'two'
p1528
as(S'f\xc3\xb6r'
p1529
g5
tp1530
(lp1531
S'because'
p1532
ag744
ag745
ag746
ag747
aS'in front of'
p1533
aS'too'
p1534
ag1251
ag1252
ag1253
as(g1429
g5
tp1535
(lp1536
g1433
as(g372
S'jj'
p1537
tp1538
(lp1539
g375
ag376
ag377
as(g29
g5
tp1540
(lp1541
g33
ag34
ag35
ag36
aS'one'
p1542
as(g1215
S'vb'
p1543
tp1544
(lp1545
g1218
ag1219
as(g1075
g5
tp1546
(lp1547
g1079
ag1080
ag1081
ag1082
as(S'g\xc3\xa4ller'
p1548
g5
tp1549
(lp1550
S'be valid'
p1551
aS'be in effect'
p1552
aS'pertain to'
p1553
aS'apply'
p1554
aS'concern'
p1555
as(S'skydd'
p1556
g5
tp1557
(lp1558
S'defence'
p1559
aS'security'
p1560
aS'shelter'
p1561
aS'protection'
p1562
as(S'form'
p1563
g5
tp1564
(lp1565
S'form'
p1566
aS'form'
p1567
aS'mould'
p1568
aS'shape'
p1569
as(S'viss'
p1570
g5
tp1571
(lp1572
S'certain'
p1573
as(g774
g459
tp1574
(lp1575
g777
as(S'antagna'
p1576
g1011
tp1577
(lp1578
S'adopted'
p1579
as(S'd\xc3\xa4rtill'
p1580
S'ab'
p1581
tp1582
(lp1583
S'to that'
p1584
aS'besides'
p1585
as(S'st\xc3\xb6der'
p1586
S'vb'
p1587
tp1588
(lp1589
S'support'
p1590
aS'steady'
p1591
as(g671
g5
tp1592
(lp1593
g675
as(g306
S'nn'
p1594
tp1595
(lp1596
g309
as(S'jag'
p1597
S'pn'
p1598
tp1599
(lp1600
S'I'
p1601
as(S'ekonomin'
p1602
S'nn'
p1603
tp1604
(lp1605
S'economy'
p1606
as(g1091
S'nn'
p1607
tp1608
(lp1609
g1094
as(S'gjorts'
p1610
g5
tp1611
(lp1612
S'made'
p1613
as(S'beh\xc3\xb6ver'
p1614
S'vb'
p1615
tp1616
(lp1617
S'have to'
p1618
aS'need to'
p1619
aS'want'
p1620
aS'need'
p1621
aS'require'
p1622
as(S'm\xc3\xb6jligheten'
p1623
S'nn'
p1624
tp1625
(lp1626
S'possibility'
p1627
as(g407
g5
tp1628
(lp1629
g411
ag412
as(S'nya'
p1630
S'jj'
p1631
tp1632
(lp1633
S'new'
p1634
as(g1163
g5
tp1635
(lp1636
g1167
as(g239
S'nn'
p1637
tp1638
(lp1639
g242
as(S'yrkesutbildning'
p1640
g5
tp1641
(lp1642
S'training'
p1643
as(S'gruppera'
p1644
g5
tp1645
(lp1646
S'group'
p1647
as(S'andra'
p1648
g5
tp1649
(lp1650
S'another'
p1651
aS'other'
p1652
aS'other'
p1653
aS'present'
p1654
aS'advance'
p1655
aS'set forth'
p1656
aS'put forward'
p1657
aS'second'
p1658
as(S'det'
p1659
g5
tp1660
(lp1661
S'it'
p1662
aS'he'
p1663
aS'she'
p1664
aS'that'
p1665
ag1509
ag1510
as(S'elektronisk'
p1666
g5
tp1667
(lp1668
S'electronic'
p1669
as(S'h\xc3\xa4r'
p1670
S'ab'
p1671
tp1672
(lp1673
g546
as(g1290
g5
tp1674
(lp1675
g1294
as(S't\xc3\xa4ten'
p1676
S'nn'
p1677
tp1678
(lp1679
S'head'
p1680
as(S'som'
p1681
S'pn'
p1682
tp1683
(lp1684
g1063
ag1064
as(g1640
S'nn'
p1685
tp1686
(lp1687
g1643
as(g149
g5
tp1688
(lp1689
g153
aS'certainly'
p1690
aS'absolutely'
p1691
aS'definitely'
p1692
as(S'skapa'
p1693
g5
tp1694
(lp1695
S'cause'
p1696
aS'engender'
p1697
aS'produce'
p1698
aS'give rise to'
p1699
aS'make'
p1700
aS'create'
p1701
as(S'st\xc3\xb6ra'
p1702
S'vb'
p1703
tp1704
(lp1705
S'interrupt'
p1706
as(g484
g5
tp1707
(lp1708
g488
as(S'kontakter'
p1709
g272
tp1710
(lp1711
S'contact'
p1712
aS'socket'
p1713
aS'[electrical] outlet'
p1714
as(g973
g5
tp1715
(lp1716
g977
as(S'unionen'
p1717
S'nn'
p1718
tp1719
(lp1720
S'union'
p1721
as(S'f\xc3\xb6retag'
p1722
S'vb'
p1723
tp1724
(lp1725
S'perform'
p1726
aS'carry out'
p1727
aS'undertake'
p1728
as(g1182
g1104
tp1729
(lp1730
g1185
as(g1186
S'vb'
p1731
tp1732
(lp1733
g1189
ag1190
ag1191
as(S'diskuterade'
p1734
S'vb'
p1735
tp1736
(lp1737
S'discuss'
p1738
aS'debate'
p1739
aS'argue'
p1740
as(g885
g5
tp1741
(lp1742
g888
ag889
as(S'samst\xc3\xa4mmig'
p1743
g5
tp1744
(lp1745
S'unanimous'
p1746
aS'in accord'
p1747
as(S'genom'
p1748
g5
tp1749
(lp1750
S'through'
p1751
as(S'framsteg'
p1752
S'nn'
p1753
tp1754
(lp1755
S'progress'
p1756
as(S'man'
p1757
S'pn'
p1758
tp1759
(lp1760
g1542
as(g1046
g5
tp1761
(lp1762
g1050
ag1051
as(g1717
g5
tp1763
(lp1764
g1721
as(g963
S'ab'
p1765
tp1766
(lp1767
g966
ag967
as(g123
g5
tp1768
(lp1769
g127
ag128
as(S'beslutsamt'
p1770
S'jj'
p1771
tp1772
(lp1773
S'decisively'
p1774
aS'determined'
p1775
aS'resolute'
p1776
as(S'roll'
p1777
g5
tp1778
(lp1779
S'&quot;matter&quot;'
p1780
aS'r\xc3\xb4le'
p1781
aS'r\xc3\xb4le'
p1782
aS'part'
p1783
as(S'immateriella'
p1784
g1488
tp1785
(lp1786
S'immaterial'
p1787
as(S'varor'
p1788
g5
tp1789
(lp1790
S'goods'
p1791
aS'commodity'
p1792
as(g1479
g5
tp1793
(lp1794
g1483
ag1484
ag1485
ag1486
aS'excellently'
p1795
aS'well'
p1796
as(g873
g5
tp1797
(lp1798
g877
as(S's\xc3\xa5'
p1799
g5
tp1800
(lp1801
S'if so'
p1802
aS'in that case'
p1803
aS'so'
p1804
aS'so'
p1805
aS'thus'
p1806
aS'sow'
p1807
as(S'jag'
p1808
S'nn'
p1809
tp1810
(lp1811
S'ego'
p1812
as(g942
S'jj'
p1813
tp1814
(lp1815
g945
as(g352
g5
tp1816
(lp1817
g356
as(S'om'
p1818
S'pp'
p1819
tp1820
(lp1821
g397
ag398
ag399
ag400
as(g1312
g5
tp1822
(lp1823
g1316
ag1317
ag1318
ag1319
as(S'sade'
p1824
S'vb'
p1825
tp1826
(lp1827
S'said'
p1828
aS'say'
p1829
as(g1548
S'vb'
p1830
tp1831
(lp1832
g1551
ag1552
ag1553
ag1554
ag1555
as(g1324
S'vb'
p1833
tp1834
(lp1835
g1327
as(g423
S'nn'
p1836
tp1837
(lp1838
g426
ag427
ag428
ag429
ag430
as(g499
g5
tp1839
(lp1840
g503
ag790
as(S'handeln'
p1841
g5
tp1842
(lp1843
S'commerce'
p1844
aS'trade'
p1845
aS'business'
p1846
aS'shop'
p1847
as(g1399
S'article'
p1848
tp1849
(lp1850
g1402
ag1403
as(g21
g5
tp1851
(lp1852
g25
ag26
ag27
ag28
as(S'inf\xc3\xb6ra'
p1853
g5
tp1854
(lp1855
S'introduce'
p1856
as(S'noga'
p1857
S'ab'
p1858
tp1859
(lp1860
S'exactly'
p1861
aS'carefully'
p1862
as(S'\xc3\xa4n'
p1863
S'kn'
p1864
tp1865
(lp1866
S'than'
p1867
as(g878
g5
tp1868
(lp1869
g882
ag883
ag884
as(g631
S'nn'
p1870
tp1871
(lp1872
g634
ag635
as(g827
g216
tp1873
(lp1874
g830
as(S'kommer'
p1875
g5
tp1876
(lp1877
S'arouse'
p1878
aS'prompt'
p1879
aS'arrive'
p1880
aS'come'
p1881
aS'come from'
p1882
aS'will'
p1883
aS'be going to'
p1884
as(S'de'
p1885
S'article'
p1886
tp1887
(lp1888
S'the'
p1889
aS'that'
p1890
as(g1405
S'jj'
p1891
tp1892
(lp1893
g1408
as(g1630
g5
tp1894
(lp1895
g1634
as(g1623
g5
tp1896
(lp1897
g1627
as(g37
g5
tp1898
(lp1899
g41
as(S'en'
p1900
g5
tp1901
(lp1902
g1402
aS'an'
p1903
aS'about'
p1904
ag1364
ag1365
aS'one'
p1905
ag1413
as(g385
g5
tp1906
(lp1907
g389
aS'interested'
p1908
as(g1602
g5
tp1909
(lp1910
g1606
as(g1299
g5
tp1911
(lp1912
g1303
ag1304
ag1305
ag1306
ag1889
ag1890
as(g1784
g5
tp1913
(lp1914
g1787
as(g1752
g5
tp1915
(lp1916
g1756
as(S'utbildning'
p1917
g5
tp1918
(lp1919
S'education'
p1920
as(g1328
g5
tp1921
(lp1922
g1332
aS'my'
p1923
as(g113
S'ad'
p1924
tp1925
(lp1926
g116
as(g1563
S'nn'
p1927
tp1928
(lp1929
g1566
ag1567
ag1568
ag1569
as(g1648
S'pn'
p1930
tp1931
(lp1932
g1651
ag1652
ag1653
as(S'tonvikten'
p1933
S'nn'
p1934
tp1935
(lp1936
S'stress'
p1937
as(S'f\xc3\xb6rtroende'
p1938
g5
tp1939
(lp1940
S'faith'
p1941
aS'confidence'
p1942
aS'trust'
p1943
as(g468
g5
tp1944
(lp1945
g472
ag473
ag474
ag475
ag476
as(g1702
g5
tp1946
(lp1947
g1706
as(g640
S'jj'
p1948
tp1949
(lp1950
g643
as(S'f\xc3\xb6rdelar'
p1951
g5
tp1952
(lp1953
S'benefit'
p1954
aS'advantage'
p1955
ag451
as(S'inneh\xc3\xa5lla'
p1956
S'vb'
p1957
tp1958
(lp1959
S'contain'
p1960
aS'withhold'
p1961
as(S'fr\xc3\xa4mst'
p1962
S'ab'
p1963
tp1964
(lp1965
g269
ag270
as(S'fr\xc3\xa4mja'
p1966
g5
tp1967
(lp1968
S'forward'
p1969
aS'further'
p1970
aS'promote'
p1971
as(g489
g5
tp1972
(lp1973
g493
as(g1492
S'nn'
p1974
tp1975
(lp1976
g1495
ag1496
as(S'vi'
p1977
S'pn'
p1978
tp1979
(lp1980
S'we'
p1981
as(g604
g5
tp1982
(lp1983
g608
as(g346
S'vb'
p1984
tp1985
(lp1986
g349
ag350
ag351
as(g1202
g5
tp1987
(lp1988
g1206
ag1207
as(S'n\xc3\xa4r'
p1989
S'kn'
p1990
tp1991
(lp1992
S'when'
p1993
as(S'ett'
p1994
S'rg'
p1995
tp1996
(lp1997
g1404
as(S'\xc3\xb6verensst\xc3\xa4mmer'
p1998
g5
tp1999
(lp2000
S'consistent'
p2001
as(g452
g5
tp2002
(lp2003
g456
ag457
as(S'liksom'
p2004
g5
tp2005
(lp2006
S'like'
p2007
aS'as'
p2008
ag247
ag248
as(S'utan'
p2009
S'kn'
p2010
tp2011
(lp2012
S'but'
p2013
as(g1440
g5
tp2014
(lp2015
g1444
as(S'stora'
p2016
g5
tp2017
(lp2018
S'large'
p2019
aS'big'
p2020
aS'great'
p2021
as(S's\xc3\xa4kerheten'
p2022
S'nn'
p2023
tp2024
(lp2025
S'certainty'
p2026
aS'safety'
p2027
aS'security'
p2028
as(g379
S'nn'
p2029
tp2030
(lp2031
g382
as(g1644
g974
tp2032
(lp2033
g1647
as(S'hindrar'
p2034
S'vb'
p2035
tp2036
(lp2037
S'prevent'
p2038
aS'hinder'
p2039
aS'check'
p2040
aS'restrain'
p2041
as(S'utveckling'
p2042
g5
tp2043
(lp2044
S'development'
p2045
aS'trend'
p2046
as(S'till\xc3\xa4mpningen'
p2047
S'nn'
p2048
tp2049
(lp2050
S'application'
p2051
as(g92
g5
tp2052
(lp2053
g96
aS'nourish'
p2054
ag97
ag1993
as(g818
S'nn'
p2055
tp2056
(lp2057
g821
ag822
ag823
ag824
ag825
ag826
as(g1610
g969
tp2058
(lp2059
g1613
as(S'f\xc3\xb6r'
p2060
S'ab'
p2061
tp2062
(lp2063
g1533
ag1534
as(S'arbetsstyrkan'
p2064
S'nn'
p2065
tp2066
(lp2067
S'labour (work) force'
p2068
as(g1777
S'nn'
p2069
tp2070
(lp2071
g1780
ag1781
ag1782
ag1783
as(S'ber\xc3\xa4ttigade'
p2072
S'jj'
p2073
tp2074
(lp2075
S'authorized'
p2076
aS'entitled'
p2077
aS'justified'
p2078
aS'legitimate'
p2079
as(S'verktyg'
p2080
S'nn'
p2081
tp2082
(lp2083
S'tool'
p2084
as(g280
g1291
tp2085
(lp2086
g283
ag284
ag285
ag286
as(g436
S'vb'
p2087
tp2088
(lp2089
g439
ag440
ag441
as(g1875
S'vb'
p2090
tp2091
(lp2092
g1878
ag1879
ag1880
ag1881
ag1882
ag1883
ag1884
as(S'begr\xc3\xa4nsning'
p2093
g5
tp2094
(lp2095
S'bounds'
p2096
aS'restriction'
p2097
aS'limitation'
p2098
as(g254
S'nn'
p2099
tp2100
(lp2101
g257
as(g1734
g5
tp2102
(lp2103
g1738
ag1739
ag1740
as(S'i'
p2104
S'ab'
p2105
tp2106
(lp2107
S'at'
p2108
aS'on'
p2109
aS'in'
p2110
aS'with respect to'
p2111
as(S'vilja'
p2112
S'nn'
p2113
tp2114
(lp2115
g603
as(S'europeiska'
p2116
g5
tp2117
(lp2118
S'European'
p2119
as(g1159
S'nn'
p2120
tp2121
(lp2122
g1162
as(g2016
S'jj'
p2123
tp2124
(lp2125
g2019
ag2020
ag2021
as(g1389
g5
tp2126
(lp2127
g1393
as(g1788
S'nn'
p2128
tp2129
(lp2130
g1791
ag1792
as(g1529
S'kn'
p2131
tp2132
(lp2133
g1532
as(g1273
g5
tp2134
(lp2135
g1277
as(S'h\xc3\xb6rande'
p2136
g5
tp2137
(lp2138
S'domiciled'
p2139
as(S'utanf\xc3\xb6r'
p2140
S'pp'
p2141
tp2142
(lp2143
S'outside'
p2144
as(S'speciellt'
p2145
g5
tp2146
(lp2147
S'special'
p2148
as(S'intressen'
p2149
g5
tp2150
(lp2151
S'interest'
p2152
as(g1452
S'pp'
p2153
tp2154
(lp2155
g1455
ag1456
ag1457
ag1458
as(S'en'
p2156
S'pn'
p2157
tp2158
(lp2159
g1905
as(g1487
g5
tp2160
(lp2161
g1491
as(g1956
g5
tp2162
(lp2163
g1960
ag1961
as(S'komma'
p2164
S'vb'
p2165
tp2166
(lp2167
S'arouse'
p2168
aS'prompt'
p2169
aS'arrive'
p2170
aS'come'
p2171
aS'come from'
p2172
aS'will'
p2173
aS'be going to'
p2174
as(g271
g5
tp2175
(lp2176
g275
ag276
as(g2104
S'pp'
p2177
tp2178
(lp2179
S'as'
p2180
aS'at'
p2181
aS'in'
p2182
aS'for'
p2183
aS'on'
p2184
aS'of'
p2185
aS'to'
p2186
as(g2022
g5
tp2187
(lp2188
g2026
ag2027
ag2028
as(g2093
S'nn'
p2189
tp2190
(lp2191
g2096
ag2097
ag2098
as(S'av'
p2192
S'ab'
p2193
tp2194
(lp2195
g1089
ag1090
as(g968
g5
tp2196
(lp2197
g972
as(g547
g5
tp2198
(lp2199
g551
ag552
ag553
ag554
as(g895
g5
tp2200
(lp2201
g899
as(S'inr\xc3\xa4tta'
p2202
S'vb'
p2203
tp2204
(lp2205
S'establish'
p2206
aS'found'
p2207
aS'start'
p2208
aS'set up'
p2209
as(g1853
S'vb'
p2210
tp2211
(lp2212
g1856
as(g224
S'nn'
p2213
tp2214
(lp2215
g227
ag228
as(S'resebranschen'
p2216
S'nn'
p2217
tp2218
(lp2219
S'travel industry'
p2220
as(g2149
S'nn'
p2221
tp2222
(lp2223
g2152
as(g1376
S'jj'
p2224
tp2225
(lp2226
g1379
ag1380
as(g1709
g5
tp2227
(lp2228
g1712
ag1713
ag1714
as(S'under'
p2229
S'pp'
p2230
tp2231
(lp2232
S'beneath'
p2233
aS'below'
p2234
aS'during'
p2235
aS'under'
p2236
aS'in'
p2237
as(S'h\xc3\xa4nsyn'
p2238
g5
tp2239
(lp2240
S'consideration'
p2241
aS'respect'
p2242
as(S'intresserade'
p2243
S'jj'
p2244
tp2245
(lp2246
g1908
as(g2047
g5
tp2247
(lp2248
g2051
as(S'kvalifikationerna'
p2249
g5
tp2250
(lp2251
S'qualifications'
p2252
as(g1556
S'nn'
p2253
tp2254
(lp2255
g1559
ag1560
ag1561
ag1562
as(g978
g5
tp2256
(lp2257
g982
as(g833
g5
tp2258
(lp2259
g837
as(S's\xc3\xa5'
p2260
S'kn'
p2261
tp2262
(lp2263
g1804
as(S'senaste'
p2264
g1021
tp2265
(lp2266
S'last'
p2267
as(S'ge'
p2268
S'vb'
p2269
tp2270
(lp2271
S'give'
p2272
as(g1938
S'nn'
p2273
tp2274
(lp2275
g1941
ag1942
ag1943
as(g1743
S'jj'
p2276
tp2277
(lp2278
g1746
ag1747
as(g921
g5
tp2279
(lp2280
g925
ag2144
as(S'gladde'
p2281
g5
tp2282
(lp2283
S'delight'
p2284
aS'please'
p2285
aS'give pleasure'
p2286
aS'gave (sby) pleasure'
p2287
as(g560
S'ab'
p2288
tp2289
(lp2290
g563
ag564
as(g1863
g5
tp2291
(lp2292
g1867
ag802
ag803
ag804
as(g1356
S'ab'
p2293
tp2294
(lp2295
g1359
as(g1586
g5
tp2296
(lp2297
g1590
ag1591
as(S'ber\xc3\xa4ttigade'
p2298
g5
tp2299
(lp2300
S'authorize'
p2301
aS'entitle'
p2302
ag2076
ag2077
ag2078
ag2079
as(g1570
S'jj'
p2303
tp2304
(lp2305
g1573
as(S'inre'
p2306
S'nn'
p2307
tp2308
(lp2309
g378
as(g890
S'nn'
p2310
tp2311
(lp2312
g893
as(g813
g5
tp2313
(lp2314
g817
as(g154
S'ab'
p2315
tp2316
(lp2317
g157
ag158
ag159
as(g1824
g5
tp2318
(lp2319
g1828
ag1829
as(g588
S'pn'
p2320
tp2321
(lp2322
g591
ag592
ag593
ag596
as(S'datorernas'
p2323
S'nn'
p2324
tp2325
(lp2326
S'computers'
p2327
as(S'v\xc3\xa5r'
p2328
g5
tp2329
(lp2330
S'our'
p2331
aS'spring'
p2332
as(g1841
S'nn'
p2333
tp2334
(lp2335
g1844
ag1845
ag1846
ag1847
as(g996
S'jj'
p2336
tp2337
(lp2338
g999
as(S'mig'
p2339
S'pn'
p2340
tp2341
(lp2342
S'me'
p2343
aS'myself'
p2344
as(g1154
g5
tp2345
(lp2346
g1158
as(S'undantag'
p2347
S'nn'
p2348
tp2349
(lp2350
S'exception'
p2351
as(g1966
S'vb'
p2352
tp2353
(lp2354
g1969
ag1970
ag1971
as(S'noga'
p2355
g5
tp2356
(lp2357
S'careful'
p2358
ag1861
ag1862
as(g720
g5
tp2359
(lp2360
g724
ag725
ag726
ag727
ag728
as(g1524
g5
tp2361
(lp2362
g1528
ag1058
as(g2136
S'jj'
p2363
tp2364
(lp2365
g2139
as(S'undantag'
p2366
S'vb'
p2367
tp2368
(lp2369
S'exempt'
p2370
aS'except'
p2371
as(g838
g5
tp2372
(lp2373
g842
as(g1917
S'nn'
p2374
tp2375
(lp2376
g1920
as(S'bara'
p2377
S'ab'
p2378
tp2379
(lp2380
S'merely'
p2381
aS'only'
p2382
aS'just'
p2383
as(g649
g5
tp2384
(lp2385
g653
as(S'b\xc3\xa4ttre'
p2386
S'ab'
p2387
tp2388
(lp2389
g1795
ag1796
as(S'mellan'
p2390
g5
tp2391
(lp2392
S'between'
p2393
as(g1580
g5
tp2394
(lp2395
g1584
ag1585
as(g636
S'nn'
p2396
tp2397
(lp2398
g639
as(g2328
S'pn'
p2399
tp2400
(lp2401
g2331
as(S'e-handel'
p2402
g5
tp2403
(lp2404
S'E-Commerce'
p2405
as(g2249
S'nn'
p2406
tp2407
(lp2408
g2252
as(g860
S'nn'
p2409
tp2410
(lp2411
g863
ag864
ag865
ag866
as(S'andra'
p2412
S'vb'
p2413
tp2414
(lp2415
g1654
ag1655
ag1656
ag1657
as(g781
g5
tp2416
(lp2417
g785
as(S'l\xc3\xa4gger'
p2418
g5
tp2419
(lp2420
S'place'
p2421
aS'put'
p2422
aS'set'
p2423
aS'lay'
p2424
as(g1083
S'pp'
p2425
tp2426
(lp2427
g1086
ag1087
ag1088
as(g955
S'jj'
p2428
tp2429
(lp2430
g958
as(g1951
S'nn'
p2431
tp2432
(lp2433
g1954
ag1955
as(g2202
g5
tp2434
(lp2435
g2206
ag2207
ag2208
ag2209
as(g2323
g5
tp2436
(lp2437
g2327
as(g991
S'nn'
p2438
tp2439
(lp2440
g994
ag995
as(g56
g5
tp2441
(lp2442
g60
as(S'e-handelsmarknad'
p2443
S'nn'
p2444
tp2445
(lp2446
S'E-Commerce Market'
p2447
as(S'utforma'
p2448
g618
tp2449
(lp2450
S'design'
p2451
as(g580
g5
tp2452
(lp2453
g584
as(g516
g5
tp2454
(lp2455
g520
as(S'bara'
p2456
S'jj'
p2457
tp2458
(lp2459
S'naked'
p2460
aS'bare'
p2461
as(g1133
g5
tp2462
(lp2463
g1137
ag1138
ag1139
as(g1237
g5
tp2464
(lp2465
g1241
as(S'tekniska'
p2466
S'jj'
p2467
tp2468
(lp2469
S'[technically] adept'
p2470
aS'technical'
p2471
as(S'marknaden'
p2472
S'nn'
p2473
tp2474
(lp2475
S'market'
p2476
as(g1220
g5
tp2477
(lp2478
g1224
as(g541
S'nn'
p2479
tp2480
(lp2481
g544
ag545
as(g765
S'nn'
p2482
tp2483
(lp2484
g768
as(S'r\xc3\xa4ttm\xc3\xa4tiga'
p2485
g5
tp2486
(lp2487
S'rightful'
p2488
aS'lawful'
p2489
as(g2268
g5
tp2490
(lp2491
g2272
as(S's\xc3\xa5'
p2492
S'ab'
p2493
tp2494
(lp2495
g1805
ag1806
as(g139
g5
tp2496
(lp2497
g143
ag144
ag145
ag146
ag147
ag148
as(S'mer'
p2498
S'jj'
p2499
tp2500
(lp2501
S'more'
p2502
as(g2355
S'jj'
p2503
tp2504
(lp2505
g2358
as(g1900
S'article'
p2506
tp2507
(lp2508
g1402
ag1903
as(S'p\xc3\xa5'
p2509
S'pp'
p2510
tp2511
(lp2512
S'after'
p2513
aS'in'
p2514
aS'during'
p2515
aS'of'
p2516
aS'at'
p2517
aS'on'
p2518
as(g1069
S'jj'
p2519
tp2520
(lp2521
g1072
as(g1208
g5
tp2522
(lp2523
g1212
ag1213
ag987
ag1009
ag1010
ag1214
as(S'fr\xc3\xa5ga'
p2524
S'vb'
p2525
tp2526
(lp2527
S'ask'
p2528
as(g2402
S'nn'
p2529
tp2530
(lp2531
g2405
as(g1977
g5
tp2532
(lp2533
g1981
as(g680
g5
tp2534
(lp2535
g684
as(g2034
g5
tp2536
(lp2537
g2038
ag2039
ag2040
ag2041
as(S'forts\xc3\xa4tter'
p2538
g5
tp2539
(lp2540
S'continue'
p2541
aS'go on'
p2542
aS'keep on'
p2543
aS'carry on'
p2544
as(S'skydds\xc3\xa5tg\xc3\xa4rder'
p2545
g5
tp2546
(lp2547
S'protective'
p2548
as(g1666
S'jj'
p2549
tp2550
(lp2551
g1669
as(g15
S'nn'
p2552
tp2553
(lp2554
g18
ag19
ag20
as(S'vara'
p2555
g5
tp2556
(lp2557
S'am'
p2558
aS'are'
p2559
aS'is'
p2560
aS'be'
p2561
aS'last'
p2562
ag1131
ag1132
as(S'-'
p2563
g1924
tp2564
(lp2565
g2563
as(g2485
S'jj'
p2566
tp2567
(lp2568
g2488
ag2489
as(g431
g5
tp2569
(lp2570
g435
as(g1511
S'pn'
p2571
tp2572
(lp2573
g1514
ag1515
ag1516
ag1517
as(S'under'
p2574
S'nn'
p2575
tp2576
(lp2577
S'wonder'
p2578
as(g1140
g5
tp2579
(lp2580
g1144
ag1145
ag1146
ag1147
ag1148
ag1269
ag1270
ag1271
ag1272
as(g926
g5
tp2581
(lp2582
g929
as(g1172
S'nn'
p2583
tp2584
(lp2585
g1175
as(g2164
g5
tp2586
(lp2587
g2168
ag2169
ag2170
ag2171
ag2172
ag662
ag2173
ag2174
as(g951
S'kn'
p2588
tp2589
(lp2590
g954
as(S'n\xc3\xa4r'
p2591
S'vb'
p2592
tp2593
(lp2594
g2054
as(S'n\xc3\xb6dv\xc3\xa4ndigheten'
p2595
g5
tp2596
(lp2597
S'necessity'
p2598
as(S'mina'
p2599
S'pn'
p2600
tp2601
(lp2602
g1923
as(g2466
g5
tp2603
(lp2604
g2470
ag2471
as(S'konsumentskyddsdirektiv'
p2605
g5
tp2606
(lp2607
S'consumer protection directives'
p2608
as(S'mer'
p2609
S'ab'
p2610
tp2611
(lp2612
S'more'
p2613
aS'additional'
p2614
as(g2080
g5
tp2615
(lp2616
g2084
as(g235
S'vb'
p2617
tp2618
(lp2619
g238
as(g2347
g5
tp2620
(lp2621
g2351
ag2370
ag2371
as(g1065
S'nn'
p2622
tp2623
(lp2624
g1068
as(g418
g5
tp2625
(lp2626
g422
as(S'andra'
p2627
S'rg'
p2628
tp2629
(lp2630
g1658
as(g2238
S'nn'
p2631
tp2632
(lp2633
g2241
ag2242
as(g1107
S'nn'
p2634
tp2635
(lp2636
g1110
ag1111
as(g287
g5
tp2637
(lp2638
g291
ag292
as(g160
S'jj'
p2639
tp2640
(lp2641
g163
as(g2104
g5
tp2642
(lp2643
g2180
ag2181
ag2182
ag2183
ag2184
ag2185
ag2186
ag2108
ag2109
ag2110
ag2111
as(g1576
g5
tp2644
(lp2645
g1579
as(g1118
g5
tp2646
(lp2647
g1122
as(g1770
g5
tp2648
(lp2649
g1774
ag1775
ag1776
as(S'b\xc3\xb6r'
p2650
S'vb'
p2651
tp2652
(lp2653
S'ought to'
p2654
aS'should'
p2655
as(g1307
S'nn'
p2656
tp2657
(lp2658
g1310
ag1311
as(g2216
g5
tp2659
(lp2660
g2220
as(S'procent'
p2661
S'nn'
p2662
tp2663
(lp2664
S'per cent'
p2665
as(g293
S'nn'
p2666
tp2667
(lp2668
g296
as(g2116
S'jj'
p2669
tp2670
(lp2671
g2119
as(g2563
g5
tp2672
(lp2673
g2563
as(g1242
g5
tp2674
(lp2675
g1246
as(S'till'
p2676
g5
tp2677
(lp2678
S'another'
p2679
aS'more'
p2680
ag197
ag198
ag199
ag200
ag201
ag202
ag203
as(g2264
g5
tp2681
(lp2682
g2267
as(g2229
g5
tp2683
(lp2684
g2233
ag2234
ag2235
ag2236
ag2237
ag2578
as(g1799
S'pn'
p2685
tp2686
(lp2687
g1802
ag1803
as(g177
S'jj'
p2688
tp2689
(lp2690
g180
ag181
ag182
ag183
ag184
as(g2448
g5
tp2691
(lp2692
g2451
as(g211
g459
tp2693
(lp2694
g214
as(S'n\xc3\xa4tbutiker'
p2695
S'nn'
p2696
tp2697
(lp2698
S'online stores'
p2699
as(g1472
S'nn'
p2700
tp2701
(lp2702
g1475
as(g2298
S'vb'
p2703
tp2704
(lp2705
g2301
ag2302
as(g1278
g5
tp2706
(lp2707
g1282
as(g2004
S'kn'
p2708
tp2709
(lp2710
g2007
ag2008
as(g341
g5
tp2711
(lp2712
g345
as(g215
g5
tp2713
(lp2714
g219
as(S'slutits'
p2715
g5
tp2716
(lp2717
S'concluded'
p2718
as(g185
S'nn'
p2719
tp2720
(lp2721
g188
as(g900
g5
tp2722
(lp2723
g904
as(g1095
g5
tp2724
(lp2725
g1099
ag1100
as(g2715
g1291
tp2726
(lp2727
g2718
as(g2339
g5
tp2728
(lp2729
g2343
ag2344
as(g1676
g5
tp2730
(lp2731
g1680
as(g1176
S'kn'
p2732
tp2733
(lp2734
g1179
as(g494
g5
tp2735
(lp2736
g498
as(g1343
g627
tp2737
(lp2738
g1346
ag1347
as(S'distansavtal'
p2739
S'nn'
p2740
tp2741
(lp2742
S'distance contracts'
p2743
as(g1933
g5
tp2744
(lp2745
g1937
as(g2524
g5
tp2746
(lp2747
g2528
ag1522
ag1523
as(g302
S'ab'
p2748
tp2749
(lp2750
g305
as(g1338
S'ab'
p2751
tp2752
(lp2753
g1341
ag1342
as(g734
S'nn'
p2754
tp2755
(lp2756
g737
ag738
ag739
as(S'v\xc3\xa5r'
p2757
g1685
tp2758
(lp2759
g2332
as(g297
g5
tp2760
(lp2761
g301
as(g2739
g5
tp2762
(lp2763
g2743
as(g74
g5
tp2764
(lp2765
g78
ag79
ag80
as(g2555
S'vb'
p2766
tp2767
(lp2768
g2558
ag2559
ag2560
ag2561
ag2562
as(g1614
g5
tp2769
(lp2770
g1618
ag1619
ag1620
ag1621
ag1622
as(g2661
g5
tp2771
(lp2772
g2665
as(g565
S'vb'
p2773
tp2774
(lp2775
g568
ag569
ag570
ag571
as(g2545
g1291
tp2776
(lp2777
g2548
as(g2064
g5
tp2778
(lp2779
g2068
as(g1039
g5
tp2780
(lp2781
g5
ag2013
ag417
as(g402
g5
tp2782
(lp2783
g406
as(g959
g1886
tp2784
(lp2785
g962
as(S'den'
p2786
S'article'
p2787
tp2788
(lp2789
g597
ag598
as(S'vart'
p2790
S'ab'
p2791
tp2792
(lp2793
g1263
as(g1059
S'kn'
p2794
tp2795
(lp2796
g1062
as(g1998
S'jj'
p2797
tp2798
(lp2799
g2001
as(g2695
g5
tp2800
(lp2801
g2699
as(g2281
S'vb'
p2802
tp2803
(lp2804
g2284
ag2285
ag2286
ag2287
as(g1693
S'vb'
p2805
tp2806
(lp2807
g1696
ag1697
ag1698
ag1699
ag1700
ag1701
as(g366
g2519
tp2808
(lp2809
g369
ag370
ag371
as(S'absolut'
p2810
S'ab'
p2811
tp2812
(lp2813
g1690
ag1691
ag1692
as(g2390
S'pp'
p2814
tp2815
(lp2816
g2393
as(S'en'
p2817
S'ab'
p2818
tp2819
(lp2820
g1904
as(g2418
S'vb'
p2821
tp2822
(lp2823
g2421
ag2422
ag2423
ag2424
as(g1366
g5
tp2824
(lp2825
g1370
ag1371
ag1372
ag1373
ag1726
ag1727
ag1728
as(g2650
g5
tp2826
(lp2827
g2654
ag2655
as(g748
S'nn'
p2828
tp2829
(lp2830
g751
as(g2676
S'ab'
p2831
tp2832
(lp2833
g2679
ag2680
as(g2498
g5
tp2834
(lp2835
g2502
ag2613
ag2614
as(g2605
S'nn'
p2836
tp2837
(lp2838
g2608
as(g477
S'nn'
p2839
tp2840
(lp2841
g480
ag481
as(g458
g5
tp2842
(lp2843
g462
as(g2443
g5
tp2844
(lp2845
g2447
as(g1459
S'nn'
p2846
tp2847
(lp2848
g1462
ag1463
ag1464
ag1465
as(g663
g5
tp2849
(lp2850
g667
as(g2145
S'jj'
p2851
tp2852
(lp2853
g2148
as(S'efter'
p2854
S'pp'
p2855
tp2856
(lp2857
g1396
ag1397
ag1398
as(g220
g140
tp2858
(lp2859
g223
as(g690
g5
tp2860
(lp2861
g694
as(g711
g5
tp2862
(lp2863
g715
ag716
ag717
ag718
ag719
as(g1597
g5
tp2864
(lp2865
g1601
ag1812
as(g932
g5
tp2866
(lp2867
g936
ag2381
ag2382
ag2383
ag2460
ag2461
as(g1424
g2802
tp2868
(lp2869
g1427
ag1428
as(g1168
S'nn'
p2870
tp2871
(lp2872
g1171
as(g793
g5
tp2873
(lp2874
g797
as(g2042
S'nn'
p2875
tp2876
(lp2877
g2045
ag2046
as(g757
S'jj'
p2878
tp2879
(lp2880
g760
as(S's\xc3\xa5'
p2881
S'vb'
p2882
tp2883
(lp2884
g1807
as(g2595
S'nn'
p2885
tp2886
(lp2887
g2598
as(g2472
g5
tp2888
(lp2889
g2476
as(g2538
S'vb'
p2890
tp2891
(lp2892
g2541
ag2542
ag2543
ag2544
as(g1748
g969
tp2893
(lp2894
g1751
as(S'om'
p2895
g2732
tp2896
(lp2897
g401
as(g609
g5
tp2898
(lp2899
g613
as(g1659
S'pn'
p2900
tp2901
(lp2902
g1662
ag1663
ag1664
ag1665
as(g2509
g5
tp2903
(lp2904
g2513
ag528
ag2514
ag2515
ag2516
ag2517
ag2518
as.