ccollections
defaultdict
p0
(c__builtin__
list
p1
tp2
Rp3
(S'befolkningen'
p4
S''
p5
tp6
(lp7
S'people'
p8
aS'population'
p9
as(S'vart'
p10
S'pn'
p11
tp12
(lp13
S'every'
p14
as(S'anv\xc3\xa4ndningen'
p15
g5
tp16
(lp17
S'usage'
p18
aS'employment'
p19
aS'use'
p20
as(S'intar'
p21
S'vb'
p22
tp23
(lp24
S'occupy'
p25
aS'take'
p26
aS'partake of'
p27
aS'eat'
p28
as(S'man'
p29
S'nn'
p30
tp31
(lp32
S'husband'
p33
aS'man'
p34
aS'mane'
p35
aS'person'
p36
as(S'r\xc3\xa4ttighet'
p37
S'nn'
p38
tp39
(lp40
S'right'
p41
as(S'sin'
p42
g5
tp43
(lp44
S'his'
p45
aS'one'
p46
aS'her'
p47
aS'its'
p48
aS'theirs'
p49
as(S'fru'
p50
S'nn'
p51
tp52
(lp53
S'wife'
p54
aS'Mrs.'
p55
as(S'f\xc3\xb6rb\xc3\xa4ttra'
p56
S'vb'
p57
tp58
(lp59
S'improve'
p60
as(S'm\xc3\xb6jlighet'
p61
g5
tp62
(lp63
S'possibility'
p64
as(S'se'
p65
g5
tp66
(lp67
S'notice'
p68
aS'watch'
p69
aS'see'
p70
aS'look'
p71
aS'view'
p72
aS'perceive'
p73
as(S'samverkar'
p74
S'vb'
p75
tp76
(lp77
S'collaborate'
p78
aS'cooperate'
p79
aS'work together'
p80
as(S'tack'
p81
S'nn'
p82
tp83
(lp84
S'thanks'
p85
as(S'rent'
p86
S'jj'
p87
tp88
(lp89
S'clean'
p90
aS'pure'
p91
as(S'n\xc3\xa4r'
p92
S'ab'
p93
tp94
(lp95
S'near'
p96
aS'when'
p97
as(S's\xc3\xa4kerst\xc3\xa4lla'
p98
g5
tp99
(lp100
S'guarantee'
p101
aS'secure'
p102
as(g4
S'nn'
p103
tp104
(lp105
g8
ag9
as(S'plats'
p106
g5
tp107
(lp108
S'place'
p109
aS'position'
p110
aS'job'
p111
aS'room'
p112
as(S'tillg\xc3\xa4ngliga'
p113
S'jj'
p114
tp115
(lp116
S'available'
p117
aS'accessible'
p118
as(S'f\xc3\xb6rs\xc3\xa4kringar'
p119
S'nn'
p120
tp121
(lp122
S'assurance'
p123
aS'insurance'
p124
as(S'skydda'
p125
S'vb'
p126
tp127
(lp128
S'preserve'
p129
aS'protect'
p130
aS'cover'
p131
aS'secure'
p132
aS'shelter'
p133
aS'defend'
p134
as(S'blev'
p135
S'vb'
p136
tp137
(lp138
S'become'
p139
aS'get'
p140
aS'be'
p141
aS'was'
p142
aS'got'
p143
aS'became'
p144
as(S'absolut'
p145
S'jj'
p146
tp147
(lp148
S'absolute'
p149
as(S'rent'
p150
g5
tp151
(lp152
S'absolutely'
p153
aS'completely'
p154
aS'quite'
p155
ag90
ag91
as(S'f\xc3\xb6rra'
p156
g5
tp157
(lp158
S'former'
p159
as(S'tredje'
p160
g5
tp161
(lp162
S'third'
p163
as(S'teknikerna'
p164
g5
tp165
(lp166
S'engineer'
p167
aS'technician'
p168
as(S'stimulera'
p169
g5
tp170
(lp171
S'stimulate'
p172
as(S'egna'
p173
g5
tp174
(lp175
S'odd'
p176
aS'peculiar'
p177
aS'strange'
p178
aS'queer'
p179
aS'own'
p180
as(S'konsumenterna'
p181
g5
tp182
(lp183
S'consumer'
p184
as(S'st\xc3\xb6dja'
p185
g5
tp186
(lp187
S'supporting'
p188
as(S'till'
p189
S'pp'
p190
tp191
(lp192
S'into'
p193
aS'until'
p194
aS'to'
p195
aS'of'
p196
aS'for'
p197
aS'as'
p198
aS'to'
p199
as(S'regel'
p200
S'nn'
p201
tp202
(lp203
S'bolt'
p204
aS'custom'
p205
aS'ule'
p206
as(S'internetf\xc3\xb6retag'
p207
g5
tp208
(lp209
S'internet companies'
p210
as(S'd\xc3\xa4ribland'
p211
S'jj'
p212
tp213
(lp214
S'including'
p215
as(S'bredband'
p216
g5
tp217
(lp218
S'broadband'
p219
as(S'avtal'
p220
g5
tp221
(lp222
S'agreement'
p223
aS'contract'
p224
as(S'avg\xc3\xb6rande'
p225
S'jj'
p226
tp227
(lp228
S'decisive'
p229
aS'conclusive'
p230
as(S'spela'
p231
g5
tp232
(lp233
S'play'
p234
as(S'e-handelns'
p235
g5
tp236
(lp237
S'E-Commerce'
p238
as(S'liksom'
p239
S'ab'
p240
tp241
(lp242
S'so to speak'
p243
aS'as it were'
p244
as(S'v\xc3\xa4rldsomsp\xc3\xa4nnande'
p245
S'nn'
p246
tp247
(lp248
S'global'
p249
as(S'konsumenternas'
p250
g5
tp251
(lp252
S'consumer'
p253
as(S'lagliga'
p254
g5
tp255
(lp256
S'legal'
p257
as(S'fr\xc3\xa4mst'
p258
g5
tp259
(lp260
S'in front'
p261
aS'first'
p262
aS'foremost'
p263
aS'primary'
p264
aS'mainly'
p265
aS'foremost'
p266
as(S'kulturf\xc3\xb6rem\xc3\xa5l'
p267
S'nn'
p268
tp269
(lp270
S'artifacts'
p271
aS'cultural'
p272
as(g106
S'nn'
p273
tp274
(lp275
g109
ag110
ag111
ag112
as(S'skyddet'
p276
g5
tp277
(lp278
S'defence'
p279
aS'security'
p280
aS'shelter'
p281
aS'protection'
p282
as(S'kunna'
p283
S'vb'
p284
tp285
(lp286
S'can'
p287
aS'know'
p288
as(S'handlingsplanen'
p289
g5
tp290
(lp291
S'Action Plan'
p292
as(S'harmonisera'
p293
S'vb'
p294
tp295
(lp296
S'harmonise'
p297
as(S'nu'
p298
g5
tp299
(lp300
S'now'
p301
as(S'gemenskapsr\xc3\xa4tten'
p302
g5
tp303
(lp304
S'community law'
p305
as(S'vad'
p306
S'ab'
p307
tp308
(lp309
S'how'
p310
as(S'sina'
p311
S'vb'
p312
tp313
(lp314
S'run short'
p315
aS'become (run) dry'
p316
aS'dry up'
p317
as(S'data'
p318
g5
tp319
(lp320
S'computer'
p321
aS'data'
p322
as(S'huvud'
p323
g5
tp324
(lp325
S'head'
p326
as(S'\xc3\xb6nskem\xc3\xa5l'
p327
S'nn'
p328
tp329
(lp330
S'desire'
p331
aS'wish'
p332
as(S'registrering'
p333
S'nn'
p334
tp335
(lp336
S'registration'
p337
as(S'ha'
p338
g5
tp339
(lp340
S'have'
p341
aS'possess'
p342
aS'be provided with'
p343
as(S'utnyttja'
p344
S'vb'
p345
tp346
(lp347
S'make use of'
p348
as(S'\xc3\xa4r'
p349
S'vb'
p350
tp351
(lp352
S'am'
p353
aS'are'
p354
aS'is'
p355
as(g245
g5
tp356
(lp357
g249
as(S'stort'
p358
g5
tp359
(lp360
S'large'
p361
aS'big'
p362
aS'great'
p363
as(S'inre'
p364
g5
tp365
(lp366
S'inner'
p367
aS'interior'
p368
aS'internal'
p369
aS'inside'
p370
as(S'konsument'
p371
g5
tp372
(lp373
S'consumer'
p374
as(g200
g5
tp375
(lp376
g204
ag205
ag206
as(S'intresserade'
p377
S'vb'
p378
tp379
(lp380
S'interest'
p381
as(S'om'
p382
g5
tp383
(lp384
S'about'
p385
aS'again'
p386
aS're-'
p387
aS'round'
p388
aS'by'
p389
aS'of'
p390
aS'about'
p391
aS'round'
p392
aS'if'
p393
as(S'exempelvis'
p394
S'ab'
p395
tp396
(lp397
S'for example'
p398
as(S'dialog'
p399
S'nn'
p400
tp401
(lp402
S'(dialog [US])'
p403
aS'dialogue'
p404
as(S'utan'
p405
S'pp'
p406
tp407
(lp408
S'without'
p409
as(S'system'
p410
S'nn'
p411
tp412
(lp413
S'system'
p414
as(S'tj\xc3\xa4nster'
p415
g5
tp416
(lp417
S'job'
p418
aS'post'
p419
aS'service'
p420
aS'duty'
p421
aS'favour'
p422
as(S'distansf\xc3\xb6rs\xc3\xa4ljning'
p423
S'nn'
p424
tp425
(lp426
S'distance sales'
p427
as(S'har'
p428
g5
tp429
(lp430
S'have'
p431
aS'possess'
p432
aS'be provided with'
p433
as(S'st\xc3\xa4rka'
p434
g5
tp435
(lp436
S'starch'
p437
aS'strengthen'
p438
as(S'f\xc3\xb6rdelar'
p439
S'vb'
p440
tp441
(lp442
S'divide'
p443
as(S'utvecklas'
p444
S'vb'
p445
tp446
(lp447
S'grow'
p448
aS'develop'
p449
as(S'internetleverant\xc3\xb6rernas'
p450
S'ab'
p451
tp452
(lp453
S'Internet Service Providers'
p454
as(S'vid'
p455
S'jj'
p456
tp457
(lp458
S'wide'
p459
as(S'allm\xc3\xa4nt'
p460
S'jj'
p461
tp462
(lp463
S'common'
p464
aS'general'
p465
aS'public'
p466
aS'vague'
p467
aS'generally'
p468
as(S'antal'
p469
g5
tp470
(lp471
S'quantity'
p472
aS'number'
p473
as(g113
g5
tp474
(lp475
g117
ag118
as(S'privatkopieringen'
p476
S'nn'
p477
tp478
(lp479
S'private copying'
p480
as(S'produkter'
p481
S'nn'
p482
tp483
(lp484
S'product'
p485
as(S'mig'
p486
S'pn'
p487
tp488
(lp489
S'me'
p490
aS'myself'
p491
as(S'att'
p492
S'kn'
p493
tp494
(lp495
S'that'
p496
as(S'sammantr\xc3\xa4desperioden'
p497
S'nn'
p498
tp499
(lp500
S'session'
p501
as(S'\xc3\xa4ven'
p502
S'ab'
p503
tp504
(lp505
S'too'
p506
aS'even'
p507
aS'also'
p508
as(S'adekvata'
p509
S'jj'
p510
tp511
(lp512
S'adequate'
p513
as(g434
S'vb'
p514
tp515
(lp516
g437
ag438
as(S'p\xc3\xa5'
p517
S'ab'
p518
tp519
(lp520
S'at etc.'
p521
as(S'f\xc3\xb6rnuftig'
p522
g5
tp523
(lp524
S'reasonable'
p525
aS'sensible'
p526
as(S'tydligt'
p527
S'jj'
p528
tp529
(lp530
S'clear'
p531
aS'legible'
p532
aS'clearly'
p533
as(S'h\xc3\xa4r'
p534
g5
tp535
(lp536
S'army'
p537
aS'host'
p538
aS'here'
p539
as(S'g\xc3\xb6ra'
p540
S'vb'
p541
tp542
(lp543
S'cause'
p544
aS'make'
p545
aS'do'
p546
aS'make'
p547
as(S'denna'
p548
S'pn'
p549
tp550
(lp551
S'this'
p552
as(S'ocks\xc3\xa5'
p553
g5
tp554
(lp555
S'too'
p556
aS'also'
p557
as(S'satsa'
p558
g5
tp559
(lp560
S'stake'
p561
aS'back'
p562
aS'venture'
p563
aS'bet on'
p564
as(S'f\xc3\xa5'
p565
S'vb'
p566
tp567
(lp568
S'have'
p569
aS'may'
p570
aS'receive'
p571
aS'get'
p572
as(S'unionens'
p573
S'nn'
p574
tp575
(lp576
S'union'
p577
as(g160
S'rg'
p578
tp579
(lp580
g163
as(S'den'
p581
g5
tp582
(lp583
S'it'
p584
aS'he'
p585
aS'she'
p586
aS'portable computer'
p587
aS'laptop'
p588
aS'that'
p589
aS'the'
p590
aS'that'
p591
as(S'vilja'
p592
g5
tp593
(lp594
S'want'
p595
aS'will'
p596
as(S'\xc3\xa4ndringsf\xc3\xb6rslag'
p597
S'nn'
p598
tp599
(lp600
S'amendment proposal'
p601
as(S'dataskydd'
p602
S'nn'
p603
tp604
(lp605
S'data protection'
p606
as(g61
S'nn'
p607
tp608
(lp609
g64
as(S'utlandsbaserade'
p610
S'vb'
p611
tp612
(lp613
S'foreign-based'
p614
as(S'konsumentavtal'
p615
g5
tp616
(lp617
S'consumer contracts'
p618
as(S'f\xc3\xb6rsvaras'
p619
S'vb'
p620
tp621
(lp622
S'defended'
p623
as(S'regler'
p624
g5
tp625
(lp626
S'custom'
p627
aS'rule'
p628
as(S'strategi'
p629
g5
tp630
(lp631
S'strategy'
p632
as(S'vetenskapliga'
p633
g5
tp634
(lp635
S'scientific'
p636
as(S'vill'
p637
S'vb'
p638
tp639
(lp640
S'want'
p641
as(S'konsumentskydd'
p642
S'nn'
p643
tp644
(lp645
S'consumer protection'
p646
as(S'detta'
p647
g5
tp648
(lp649
S'this'
p650
as(S'komma'
p651
S'nn'
p652
tp653
(lp654
S'comma'
p655
as(S'typ'
p656
S'nn'
p657
tp658
(lp659
S'type'
p660
as(g615
S'nn'
p661
tp662
(lp663
g618
as(S'enligt'
p664
S'pp'
p665
tp666
(lp667
S'according to'
p668
as(g125
g5
tp669
(lp670
g129
ag130
ag131
ag132
ag133
ag134
as(g349
g5
tp671
(lp672
g353
ag354
ag355
as(S'eu'
p673
S'pm'
p674
tp675
(lp676
S'EU'
p677
as(S'vad'
p678
S'pn'
p679
tp680
(lp681
S'what'
p682
as(S'halkat'
p683
S'vb'
p684
tp685
(lp686
S'slip'
p687
as(S'garantera'
p688
g5
tp689
(lp690
S'guarantee'
p691
as(S'kan'
p692
S'vb'
p693
tp694
(lp695
S'can'
p696
aS'can'
p697
aS'know'
p698
as(S'upp'
p699
g5
tp700
(lp701
S'open'
p702
aS'up'
p703
as(S'ska'
p704
S'vb'
p705
tp706
(lp707
S'have to'
p708
aS'shall'
p709
aS'must'
p710
aS'shall'
p711
aS'will'
p712
as(S'anv\xc3\xa4nder'
p713
S'vb'
p714
tp715
(lp716
S'employ'
p717
aS'use'
p718
aS'carry'
p719
aS'utilize'
p720
aS'wear'
p721
as(S'medlemsstater'
p722
S'nn'
p723
tp724
(lp725
S'member'
p726
as(S'avg\xc3\xb6rande'
p727
g5
tp728
(lp729
S'conclusion'
p730
aS'settlement'
p731
aS'decision'
p732
ag229
ag230
as(S'f\xc3\xb6r'
p733
S'pp'
p734
tp735
(lp736
S'by'
p737
aS'for'
p738
aS'of'
p739
aS'to'
p740
as(S'm\xc3\xb6jligheter'
p741
g5
tp742
(lp743
S'possibility'
p744
as(S'anser'
p745
g5
tp746
(lp747
S'consider'
p748
aS'regard'
p749
as(S'speciella'
p750
g5
tp751
(lp752
S'special'
p753
as(S'konsumentlagstiftningen'
p754
g5
tp755
(lp756
S'consumer legislation'
p757
as(S'anv\xc3\xa4ndarna'
p758
g5
tp759
(lp760
S'users'
p761
as(S'ansvar'
p762
g5
tp763
(lp764
S'responsibility'
p765
aS'liability'
p766
as(S'internetbaserade'
p767
g5
tp768
(lp769
S'internet-based'
p770
as(g185
S'vb'
p771
tp772
(lp773
g188
as(S'att'
p774
S'ie'
p775
tp776
(lp777
S'to'
p778
as(g327
g5
tp779
(lp780
g331
ag332
as(S'europa'
p781
S'pm'
p782
tp783
(lp784
S'europe'
p785
as(S'\xc3\xa4n'
p786
S'ab'
p787
tp788
(lp789
S'yet'
p790
aS'still'
p791
aS'ever'
p792
as(S'eftersom'
p793
S'kn'
p794
tp795
(lp796
S'as'
p797
aS'because'
p798
aS'seeing that'
p799
aS'since'
p800
as(S'n\xc3\xb6dv\xc3\xa4ndig'
p801
S'jj'
p802
tp803
(lp804
S'necessary'
p805
as(S'skall'
p806
g5
tp807
(lp808
S'barking'
p809
aS'bark'
p810
aS'will'
p811
aS'shall'
p812
aS'must'
p813
aS'have to'
p814
as(S'dynamiska'
p815
g5
tp816
(lp817
S'dynamic'
p818
as(g793
g5
tp819
(lp820
g797
ag798
ag799
ag800
as(S'v\xc3\xa4rld'
p821
S'nn'
p822
tp823
(lp824
S'world'
p825
as(S'f\xc3\xb6renkla'
p826
S'vb'
p827
tp828
(lp829
S'simplify'
p830
as(g254
S'jj'
p831
tp832
(lp833
g257
as(S'visst'
p834
S'ab'
p835
tp836
(lp837
S'certainly'
p838
aS'probably'
p839
as(S'sina'
p840
g5
tp841
(lp842
S'his'
p843
aS'one'
p844
aS'her'
p845
aS'its'
p846
aS'theirs'
p847
ag315
ag316
ag317
as(S'handel'
p848
g5
tp849
(lp850
S'commerce'
p851
aS'trade'
p852
aS'business'
p853
aS'shop'
p854
as(S's\xc3\xa4tt'
p855
S'nn'
p856
tp857
(lp858
S'manner'
p859
aS'way'
p860
as(S'e-handelsm\xc3\xb6jligheterna'
p861
S'nn'
p862
tp863
(lp864
S'E-Commerce Opportunities'
p865
as(S'tillg\xc3\xa5ng'
p866
S'nn'
p867
tp868
(lp869
S'access'
p870
aS'supply'
p871
aS'asset'
p872
as(S'dessa'
p873
g549
tp874
(lp875
S'these'
p876
aS'this'
p877
as(S'm\xc3\xa5ste'
p878
g5
tp879
(lp880
S'must'
p881
aS'must'
p882
as(S'balans'
p883
S'nn'
p884
tp885
(lp886
S'balance'
p887
as(S'lista'
p888
S'nn'
p889
tp890
(lp891
S'list'
p892
as(S'n\xc3\xa4tet'
p893
g5
tp894
(lp895
S'net'
p896
as(g855
g5
tp897
(lp898
g859
aS'place'
p899
aS'put'
p900
aS'set'
p901
aS'plant'
p902
aS'compose'
p903
aS'set'
p904
ag860
as(S'utanf\xc3\xb6r'
p905
S'ab'
p906
tp907
(lp908
S'outside'
p909
as(S'inte'
p910
g451
tp911
(lp912
S'not'
p913
as(g527
g5
tp914
(lp915
g531
ag532
ag533
as(S'bara'
p916
S'kn'
p917
tp918
(lp919
S'if'
p920
as(S'avancera'
p921
S'vb'
p922
tp923
(lp924
S'advance'
p925
as(S'visst'
p926
g5
tp927
(lp928
S'certain'
p929
ag838
ag839
as(S'vart'
p930
S'vb'
p931
tp932
(lp933
S'was'
p934
as(S'och'
p935
g5
tp936
(lp937
S'and'
p938
as(S'elektroniska'
p939
g5
tp940
(lp941
S'electronic'
p942
as(S'dem'
p943
g5
tp944
(lp945
S'them'
p946
as(S'f\xc3\xb6rvisso'
p947
g5
tp948
(lp949
S'assuredly'
p950
aS'certainly'
p951
as(S'genomf\xc3\xb6randebest\xc3\xa4mmelser'
p952
S'pp'
p953
tp954
(lp955
S'implementing'
p956
as(S'gr\xc3\xa4ns\xc3\xb6verskridande'
p957
S'vb'
p958
tp959
(lp960
S'crossborder'
p961
as(S'huvuddokumentet'
p962
S'nn'
p963
tp964
(lp965
S'main document'
p966
as(S'med'
p967
S'nn'
p968
tp969
(lp970
S'runner'
p971
as(g688
S'vb'
p972
tp973
(lp974
g691
as(S'vad'
p975
g5
tp976
(lp977
S'appeal'
p978
aS'bet'
p979
ag310
ag682
as(S'm\xc3\xb6jlig'
p980
g5
tp981
(lp982
S'possible'
p983
as(S's\xc3\xa5dant'
p984
S'pn'
p985
tp986
(lp987
S'such'
p988
as(S'med'
p989
S'ab'
p990
tp991
(lp992
S'too'
p993
aS'with'
p994
as(g762
S'nn'
p995
tp996
(lp997
g765
ag766
as(S'efter'
p998
S'ab'
p999
tp1000
(lp1001
S'after'
p1002
aS'next'
p1003
aS'following'
p1004
as(g65
S'vb'
p1005
tp1006
(lp1007
g68
ag69
ag70
ag71
ag72
ag73
as(g745
S'vb'
p1008
tp1009
(lp1010
g748
ag749
as(g81
g5
tp1011
(lp1012
g85
as(g497
g5
tp1013
(lp1014
g501
as(S'utan'
p1015
S'ab'
p1016
tp1017
(lp1018
g5
as(g318
S'nn'
p1019
tp1020
(lp1021
g321
ag322
as(S'direktiv'
p1022
S'nn'
p1023
tp1024
(lp1025
S'directive'
p1026
aS'instruction'
p1027
as(g502
g5
tp1028
(lp1029
g506
ag507
ag508
as(S'tv\xc3\xa5'
p1030
S'vb'
p1031
tp1032
(lp1033
S'wash'
p1034
as(S'som'
p1035
g5
tp1036
(lp1037
S'as'
p1038
aS'who'
p1039
aS'whom'
p1040
as(S'aff\xc3\xa4rsstrukturerna'
p1041
g5
tp1042
(lp1043
S'commercial structures'
p1044
as(S'strasbourg'
p1045
g5
tp1046
(lp1047
S'strasbourg'
p1048
as(g722
g5
tp1049
(lp1050
g726
as(S'tar'
p1051
S'vb'
p1052
tp1053
(lp1054
S'take'
p1055
aS'bring'
p1056
aS'grab'
p1057
aS'touch'
p1058
as(S'av'
p1059
g5
tp1060
(lp1061
S'at'
p1062
aS'by'
p1063
aS'of'
p1064
aS'off'
p1065
aS'down'
p1066
as(S'e-handeln'
p1067
g5
tp1068
(lp1069
S'E-Commerce'
p1070
as(S'oss'
p1071
S'pn'
p1072
tp1073
(lp1074
S'us'
p1075
aS'we'
p1076
as(g98
S'vb'
p1077
tp1078
(lp1079
g101
ag102
as(S'fr\xc3\xa5gan'
p1080
g5
tp1081
(lp1082
S'question'
p1083
aS'matter'
p1084
as(g382
S'ab'
p1085
tp1086
(lp1087
g385
ag386
ag387
ag388
as(g42
S'pn'
p1088
tp1089
(lp1090
g45
ag46
ag47
ag48
ag49
as(S'betalningsf\xc3\xb6rfaranden'
p1091
S'jj'
p1092
tp1093
(lp1094
S'payment procedures'
p1095
as(S'einitiativet'
p1096
g862
tp1097
(lp1098
S'e-initiative'
p1099
as(S'vara'
p1100
S'nn'
p1101
tp1102
(lp1103
S'goods'
p1104
aS'commodity'
p1105
as(S'inom'
p1106
S'pp'
p1107
tp1108
(lp1109
S'in'
p1110
aS'within'
p1111
aS'within'
p1112
as(S'\xc3\xb6ver'
p1113
S'pp'
p1114
tp1115
(lp1116
S'about'
p1117
aS'over'
p1118
aS'across'
p1119
aS'by way of'
p1120
aS'above'
p1121
as(g169
S'vb'
p1122
tp1123
(lp1124
g172
as(g619
g5
tp1125
(lp1126
g623
as(S'via'
p1127
S'pp'
p1128
tp1129
(lp1130
S'via'
p1131
as(S'ledamot'
p1132
g5
tp1133
(lp1134
S'member'
p1135
as(S'\xc3\xa5ret'
p1136
S'nn'
p1137
tp1138
(lp1139
S'year'
p1140
as(S'\xc3\xa5r'
p1141
g5
tp1142
(lp1143
S'year'
p1144
as(S'framtiden'
p1145
g5
tp1146
(lp1147
S'future'
p1148
as(S'onlinelagring'
p1149
g5
tp1150
(lp1151
S'online storage nn'
p1152
as(g637
g5
tp1153
(lp1154
g641
as(S's\xc3\xa4kras'
p1155
g5
tp1156
(lp1157
S'secured'
p1158
as(S'finnas'
p1159
g5
tp1160
(lp1161
S'am'
p1162
aS'is'
p1163
aS'are'
p1164
as(g164
S'nn'
p1165
tp1166
(lp1167
g167
ag168
as(g258
S'jj'
p1168
tp1169
(lp1170
g261
ag262
ag263
ag264
as(S'm\xc3\xa5ste'
p1171
S'vb'
p1172
tp1173
(lp1174
g882
as(S'\xc3\xb6nskem\xc3\xa5len'
p1175
S'nn'
p1176
tp1177
(lp1178
S'desire'
p1179
aS'wish'
p1180
as(S'med'
p1181
S'pp'
p1182
tp1183
(lp1184
S'for'
p1185
aS'about'
p1186
aS'with'
p1187
as(S'p\xc3\xa5verka'
p1188
g5
tp1189
(lp1190
S'influence'
p1191
aS'affect'
p1192
as(S'ni'
p1193
S'pn'
p1194
tp1195
(lp1196
S'you'
p1197
as(S's\xc3\xa4tt'
p1198
S'vb'
p1199
tp1200
(lp1201
g899
ag900
ag901
ag902
ag903
ag904
as(S'vilket'
p1202
g5
tp1203
(lp1204
S'what'
p1205
aS'which'
p1206
aS'who'
p1207
as(S'chans'
p1208
S'nn'
p1209
tp1210
(lp1211
S'chance'
p1212
as(S'r\xc3\xa4ttigheter'
p1213
S'nn'
p1214
tp1215
(lp1216
S'right'
p1217
as(S'f\xc3\xb6r'
p1218
S'vb'
p1219
tp1220
(lp1221
S'lead'
p1222
aS'conduct'
p1223
aS'transport'
p1224
as(S'handelssystem'
p1225
g5
tp1226
(lp1227
S'trading'
p1228
as(g893
S'nn'
p1229
tp1230
(lp1231
g896
as(g10
g5
tp1232
(lp1233
g14
ag934
aS'where'
p1234
aS'where'
p1235
as(S'\xc3\xb6ver'
p1236
S'ab'
p1237
tp1238
(lp1239
S'over'
p1240
aS'more than'
p1241
aS'over'
p1242
aS'past'
p1243
as(S'systemet'
p1244
S'nn'
p1245
tp1246
(lp1247
S'system'
p1248
as(S'v\xc3\xa4xa'
p1249
S'vb'
p1250
tp1251
(lp1252
S'grow'
p1253
as(g1202
S'pn'
p1254
tp1255
(lp1256
g1205
ag1206
ag1207
as(S'f\xc3\xa5'
p1257
g5
tp1258
(lp1259
S'few'
p1260
ag569
ag570
ag571
ag572
as(S'snabbare'
p1261
S'nn'
p1262
tp1263
(lp1264
S'faster'
p1265
as(S'fortbildningsprogram'
p1266
g5
tp1267
(lp1268
S'training programs'
p1269
as(S'de'
p1270
S'pn'
p1271
tp1272
(lp1273
S'it'
p1274
aS'he'
p1275
aS'she'
p1276
aS'that'
p1277
as(S'direktivet'
p1278
g5
tp1279
(lp1280
S'directive'
p1281
aS'instruction'
p1282
as(S'fungera'
p1283
S'vb'
p1284
tp1285
(lp1286
S'act'
p1287
aS'serve as'
p1288
aS'function'
p1289
aS'work'
p1290
as(S'vart'
p1291
S'nn'
p1292
tp1293
(lp1294
g1235
as(S'standardisera'
p1295
g5
tp1296
(lp1297
S'standardize'
p1298
as(S'mina'
p1299
S'nn'
p1300
tp1301
(lp1302
S'mine'
p1303
as(g50
g5
tp1304
(lp1305
g54
ag55
as(g840
S'pn'
p1306
tp1307
(lp1308
g843
ag844
ag845
ag846
ag847
as(S'\xc3\xb6verhuvudtaget'
p1309
g5
tp1310
(lp1311
S'on the whole'
p1312
aS'At all'
p1313
as(S'f\xc3\xb6rst\xc3\xa4rka'
p1314
g5
tp1315
(lp1316
S'reinforce'
p1317
aS'strengthen'
p1318
as(g592
S'vb'
p1319
tp1320
(lp1321
g595
as(g610
g5
tp1322
(lp1323
g614
as(g647
S'pn'
p1324
tp1325
(lp1326
g650
as(S's\xc3\xa5som'
p1327
g5
tp1328
(lp1329
S'as'
p1330
as(S'en'
p1331
S'nn'
p1332
tp1333
(lp1334
S'action'
p1335
aS'juniper'
p1336
as(S'f\xc3\xb6retag'
p1337
S'nn'
p1338
tp1339
(lp1340
S'business'
p1341
aS'enterprise'
p1342
aS'undertaking'
p1343
aS'company'
p1344
as(g984
g5
tp1345
(lp1346
g988
as(S'tydliga'
p1347
g5
tp1348
(lp1349
S'clear'
p1350
aS'legible'
p1351
as(g1266
S'nn'
p1352
tp1353
(lp1354
g1269
as(S'efter'
p1355
S'kn'
p1356
tp1357
(lp1358
S'after'
p1359
as(S'fr\xc3\xa5n'
p1360
S'pp'
p1361
tp1362
(lp1363
S'from'
p1364
as(g1355
g5
tp1365
(lp1366
g1359
aS'after'
p1367
aS'later'
p1368
ag1002
ag1003
ag1004
aS'for'
p1369
as(S'ett'
p1370
g5
tp1371
(lp1372
S'a'
p1373
aS'an'
p1374
aS'one'
p1375
as(S'anges'
p1376
g5
tp1377
(lp1378
S'specified'
p1379
as(S'en'
p1380
S'rg'
p1381
tp1382
(lp1383
S'one'
p1384
as(g1096
g5
tp1385
(lp1386
g1099
as(g1257
S'pn'
p1387
tp1388
(lp1389
g1260
as(g692
g5
tp1390
(lp1391
g696
ag697
ag698
as(S'granskning'
p1392
g5
tp1393
(lp1394
S'scrutiny'
p1395
aS'survey'
p1396
as(S'skatteinstrumenten'
p1397
S'nn'
p1398
tp1399
(lp1400
S'tax instruments'
p1401
as(g754
S'nn'
p1402
tp1403
(lp1404
g757
as(g323
S'nn'
p1405
tp1406
(lp1407
g326
as(S'kommissionen'
p1408
S'nn'
p1409
tp1410
(lp1411
S'commission'
p1412
as(g1225
S'nn'
p1413
tp1414
(lp1415
g1228
as(S'e-handelsdirektivet'
p1416
g5
tp1417
(lp1418
S'E-Commerce Directive'
p1419
as(S'vid'
p1420
g5
tp1421
(lp1422
S'at'
p1423
aS'at'
p1424
aS'about'
p1425
aS'to'
p1426
ag459
as(S'erk\xc3\xa4nnande'
p1427
g5
tp1428
(lp1429
S'acknowledgement'
p1430
aS'recognition'
p1431
aS'admission'
p1432
aS'confession'
p1433
as(g548
g5
tp1434
(lp1435
g552
as(S'den'
p1436
S'nn'
p1437
tp1438
(lp1439
g587
ag588
as(S'\xc3\xa5tg\xc3\xa4rder'
p1440
g5
tp1441
(lp1442
S'measure'
p1443
as(g1416
S'nn'
p1444
tp1445
(lp1446
g1419
as(S'b\xc3\xa4ttre'
p1447
S'jj'
p1448
tp1449
(lp1450
S'good'
p1451
aS'excellent'
p1452
aS'fine'
p1453
aS'better'
p1454
as(S'ihop'
p1455
S'ab'
p1456
tp1457
(lp1458
S'together'
p1459
as(S'garantier'
p1460
g5
tp1461
(lp1462
S'warranty'
p1463
aS'guarantee'
p1464
as(g921
g5
tp1465
(lp1466
g925
as(g699
S'ab'
p1467
tp1468
(lp1469
g702
ag703
as(g522
S'jj'
p1470
tp1471
(lp1472
g525
ag526
as(S'det'
p1473
S'article'
p1474
tp1475
(lp1476
S'the'
p1477
aS'that'
p1478
as(S'alla'
p1479
g5
tp1480
(lp1481
S'all'
p1482
aS'everyone'
p1483
aS'all'
p1484
aS'everybody'
p1485
as(S'fr\xc3\xa5ga'
p1486
S'nn'
p1487
tp1488
(lp1489
S'question'
p1490
aS'matter'
p1491
as(S'tv\xc3\xa5'
p1492
S'rg'
p1493
tp1494
(lp1495
S'two'
p1496
as(S'f\xc3\xb6r'
p1497
g5
tp1498
(lp1499
S'because'
p1500
ag737
ag738
ag739
ag740
aS'in front of'
p1501
aS'too'
p1502
ag1222
ag1223
ag1224
as(g1397
g5
tp1503
(lp1504
g1401
as(g364
S'jj'
p1505
tp1506
(lp1507
g367
ag368
ag369
as(g29
g5
tp1508
(lp1509
g33
ag34
ag35
ag36
aS'one'
p1510
as(g1188
S'vb'
p1511
tp1512
(lp1513
g1191
ag1192
as(g1051
g5
tp1514
(lp1515
g1055
ag1056
ag1057
ag1058
as(S'g\xc3\xa4ller'
p1516
g5
tp1517
(lp1518
S'be valid'
p1519
aS'be in effect'
p1520
aS'pertain to'
p1521
aS'apply'
p1522
aS'concern'
p1523
as(S'skydd'
p1524
g5
tp1525
(lp1526
S'defence'
p1527
aS'security'
p1528
aS'shelter'
p1529
aS'protection'
p1530
as(S'form'
p1531
g5
tp1532
(lp1533
S'form'
p1534
aS'form'
p1535
aS'mould'
p1536
aS'shape'
p1537
as(S'viss'
p1538
g5
tp1539
(lp1540
S'certain'
p1541
as(g767
g451
tp1542
(lp1543
g770
as(S'antagna'
p1544
g995
tp1545
(lp1546
S'adopted'
p1547
as(S'd\xc3\xa4rtill'
p1548
S'ab'
p1549
tp1550
(lp1551
S'to that'
p1552
aS'besides'
p1553
as(S'st\xc3\xb6der'
p1554
S'vb'
p1555
tp1556
(lp1557
S'support'
p1558
aS'steady'
p1559
as(g664
g5
tp1560
(lp1561
g668
as(g302
S'nn'
p1562
tp1563
(lp1564
g305
as(S'jag'
p1565
S'pn'
p1566
tp1567
(lp1568
S'I'
p1569
as(S'ekonomin'
p1570
S'nn'
p1571
tp1572
(lp1573
S'economy'
p1574
as(g1067
S'nn'
p1575
tp1576
(lp1577
g1070
as(S'gjorts'
p1578
g5
tp1579
(lp1580
S'made'
p1581
as(S'beh\xc3\xb6ver'
p1582
S'vb'
p1583
tp1584
(lp1585
S'have to'
p1586
aS'need to'
p1587
aS'want'
p1588
aS'need'
p1589
aS'require'
p1590
as(S'm\xc3\xb6jligheten'
p1591
S'nn'
p1592
tp1593
(lp1594
S'possibility'
p1595
as(g399
g5
tp1596
(lp1597
g403
ag404
as(S'nya'
p1598
S'jj'
p1599
tp1600
(lp1601
S'new'
p1602
as(g1136
g5
tp1603
(lp1604
g1140
as(g235
S'nn'
p1605
tp1606
(lp1607
g238
as(S'yrkesutbildning'
p1608
g5
tp1609
(lp1610
S'training'
p1611
as(S'gruppera'
p1612
g5
tp1613
(lp1614
S'group'
p1615
as(S'andra'
p1616
g5
tp1617
(lp1618
S'another'
p1619
aS'other'
p1620
aS'other'
p1621
aS'present'
p1622
aS'advance'
p1623
aS'set forth'
p1624
aS'put forward'
p1625
aS'second'
p1626
as(S'det'
p1627
g5
tp1628
(lp1629
S'it'
p1630
aS'he'
p1631
aS'she'
p1632
aS'that'
p1633
ag1477
ag1478
as(S'elektronisk'
p1634
g5
tp1635
(lp1636
S'electronic'
p1637
as(S'h\xc3\xa4r'
p1638
S'ab'
p1639
tp1640
(lp1641
g539
as(g1261
g5
tp1642
(lp1643
g1265
as(S't\xc3\xa4ten'
p1644
S'nn'
p1645
tp1646
(lp1647
S'head'
p1648
as(S'som'
p1649
S'pn'
p1650
tp1651
(lp1652
g1039
ag1040
as(g1608
S'nn'
p1653
tp1654
(lp1655
g1611
as(g145
g5
tp1656
(lp1657
g149
aS'certainly'
p1658
aS'absolutely'
p1659
aS'definitely'
p1660
as(S'skapa'
p1661
g5
tp1662
(lp1663
S'cause'
p1664
aS'engender'
p1665
aS'produce'
p1666
aS'give rise to'
p1667
aS'make'
p1668
aS'create'
p1669
as(S'st\xc3\xb6ra'
p1670
S'vb'
p1671
tp1672
(lp1673
S'interrupt'
p1674
as(g476
g5
tp1675
(lp1676
g480
as(S'kontakter'
p1677
g268
tp1678
(lp1679
S'contact'
p1680
aS'socket'
p1681
aS'[electrical] outlet'
p1682
as(g957
g5
tp1683
(lp1684
g961
as(S'unionen'
p1685
S'nn'
p1686
tp1687
(lp1688
S'union'
p1689
as(S'f\xc3\xb6retag'
p1690
S'vb'
p1691
tp1692
(lp1693
S'perform'
p1694
aS'carry out'
p1695
aS'undertake'
p1696
as(g1155
g1077
tp1697
(lp1698
g1158
as(g1159
S'vb'
p1699
tp1700
(lp1701
g1162
ag1163
ag1164
as(S'diskuterade'
p1702
S'vb'
p1703
tp1704
(lp1705
S'discuss'
p1706
aS'debate'
p1707
aS'argue'
p1708
as(g873
g5
tp1709
(lp1710
g876
ag877
as(S'samst\xc3\xa4mmig'
p1711
g5
tp1712
(lp1713
S'unanimous'
p1714
aS'in accord'
p1715
as(S'genom'
p1716
g5
tp1717
(lp1718
S'through'
p1719
as(S'framsteg'
p1720
S'nn'
p1721
tp1722
(lp1723
S'progress'
p1724
as(S'man'
p1725
S'pn'
p1726
tp1727
(lp1728
g1510
as(g1022
g5
tp1729
(lp1730
g1026
ag1027
as(g1685
g5
tp1731
(lp1732
g1689
as(g947
S'ab'
p1733
tp1734
(lp1735
g950
ag951
as(g119
g5
tp1736
(lp1737
g123
ag124
as(S'beslutsamt'
p1738
S'jj'
p1739
tp1740
(lp1741
S'decisively'
p1742
aS'determined'
p1743
aS'resolute'
p1744
as(S'roll'
p1745
g5
tp1746
(lp1747
S'&quot;matter&quot;'
p1748
aS'r\xc3\xb4le'
p1749
aS'r\xc3\xb4le'
p1750
aS'part'
p1751
as(S'immateriella'
p1752
g1456
tp1753
(lp1754
S'immaterial'
p1755
as(S'varor'
p1756
g5
tp1757
(lp1758
S'goods'
p1759
aS'commodity'
p1760
as(g1447
g5
tp1761
(lp1762
g1451
ag1452
ag1453
ag1454
aS'excellently'
p1763
aS'well'
p1764
as(g861
g5
tp1765
(lp1766
g865
as(S's\xc3\xa5'
p1767
g5
tp1768
(lp1769
S'if so'
p1770
aS'in that case'
p1771
aS'so'
p1772
aS'so'
p1773
aS'thus'
p1774
aS'sow'
p1775
as(S'jag'
p1776
S'nn'
p1777
tp1778
(lp1779
S'ego'
p1780
as(g926
S'jj'
p1781
tp1782
(lp1783
g929
as(g344
g5
tp1784
(lp1785
g348
as(S'om'
p1786
S'pp'
p1787
tp1788
(lp1789
g389
ag390
ag391
ag392
as(g1283
g5
tp1790
(lp1791
g1287
ag1288
ag1289
ag1290
as(S'sade'
p1792
S'vb'
p1793
tp1794
(lp1795
S'said'
p1796
aS'say'
p1797
as(g1516
S'vb'
p1798
tp1799
(lp1800
g1519
ag1520
ag1521
ag1522
ag1523
as(g1295
S'vb'
p1801
tp1802
(lp1803
g1298
as(g415
S'nn'
p1804
tp1805
(lp1806
g418
ag419
ag420
ag421
ag422
as(g492
g5
tp1807
(lp1808
g496
ag778
as(S'handeln'
p1809
g5
tp1810
(lp1811
S'commerce'
p1812
aS'trade'
p1813
aS'business'
p1814
aS'shop'
p1815
as(g1370
S'article'
p1816
tp1817
(lp1818
g1373
ag1374
as(g21
g5
tp1819
(lp1820
g25
ag26
ag27
ag28
as(S'inf\xc3\xb6ra'
p1821
g5
tp1822
(lp1823
S'introduce'
p1824
as(S'noga'
p1825
S'ab'
p1826
tp1827
(lp1828
S'exactly'
p1829
aS'carefully'
p1830
as(S'\xc3\xa4n'
p1831
S'kn'
p1832
tp1833
(lp1834
S'than'
p1835
as(g866
g5
tp1836
(lp1837
g870
ag871
ag872
as(g624
S'nn'
p1838
tp1839
(lp1840
g627
ag628
as(g815
g212
tp1841
(lp1842
g818
as(S'kommer'
p1843
g5
tp1844
(lp1845
S'arouse'
p1846
aS'prompt'
p1847
aS'arrive'
p1848
aS'come'
p1849
aS'come from'
p1850
aS'will'
p1851
aS'be going to'
p1852
as(S'de'
p1853
S'article'
p1854
tp1855
(lp1856
S'the'
p1857
aS'that'
p1858
as(g1376
S'jj'
p1859
tp1860
(lp1861
g1379
as(g1598
g5
tp1862
(lp1863
g1602
as(g1591
g5
tp1864
(lp1865
g1595
as(g37
g5
tp1866
(lp1867
g41
as(S'en'
p1868
g5
tp1869
(lp1870
g1373
aS'an'
p1871
aS'about'
p1872
ag1335
ag1336
aS'one'
p1873
ag1384
as(g377
g5
tp1874
(lp1875
g381
aS'interested'
p1876
as(g1570
g5
tp1877
(lp1878
g1574
as(g1270
g5
tp1879
(lp1880
g1274
ag1275
ag1276
ag1277
ag1857
ag1858
as(g1752
g5
tp1881
(lp1882
g1755
as(g1720
g5
tp1883
(lp1884
g1724
as(S'utbildning'
p1885
g5
tp1886
(lp1887
S'education'
p1888
as(g1299
g5
tp1889
(lp1890
g1303
aS'my'
p1891
as(g1531
S'nn'
p1892
tp1893
(lp1894
g1534
ag1535
ag1536
ag1537
as(g1616
S'pn'
p1895
tp1896
(lp1897
g1619
ag1620
ag1621
as(S'tonvikten'
p1898
S'nn'
p1899
tp1900
(lp1901
S'stress'
p1902
as(S'f\xc3\xb6rtroende'
p1903
g5
tp1904
(lp1905
S'faith'
p1906
aS'confidence'
p1907
aS'trust'
p1908
as(g460
g5
tp1909
(lp1910
g464
ag465
ag466
ag467
ag468
as(g1670
g5
tp1911
(lp1912
g1674
as(g633
S'jj'
p1913
tp1914
(lp1915
g636
as(S'f\xc3\xb6rdelar'
p1916
g5
tp1917
(lp1918
S'benefit'
p1919
aS'advantage'
p1920
ag443
as(S'inneh\xc3\xa5lla'
p1921
S'vb'
p1922
tp1923
(lp1924
S'contain'
p1925
aS'withhold'
p1926
as(S'fr\xc3\xa4mst'
p1927
S'ab'
p1928
tp1929
(lp1930
g265
ag266
as(S'fr\xc3\xa4mja'
p1931
g5
tp1932
(lp1933
S'forward'
p1934
aS'further'
p1935
aS'promote'
p1936
as(g481
g5
tp1937
(lp1938
g485
as(g1460
S'nn'
p1939
tp1940
(lp1941
g1463
ag1464
as(S'vi'
p1942
S'pn'
p1943
tp1944
(lp1945
S'we'
p1946
as(g597
g5
tp1947
(lp1948
g601
as(g338
S'vb'
p1949
tp1950
(lp1951
g341
ag342
ag343
as(g1175
g5
tp1952
(lp1953
g1179
ag1180
as(S'n\xc3\xa4r'
p1954
S'kn'
p1955
tp1956
(lp1957
S'when'
p1958
as(S'ett'
p1959
S'rg'
p1960
tp1961
(lp1962
g1375
as(S'\xc3\xb6verensst\xc3\xa4mmer'
p1963
g5
tp1964
(lp1965
S'consistent'
p1966
as(g444
g5
tp1967
(lp1968
g448
ag449
as(S'liksom'
p1969
g5
tp1970
(lp1971
S'like'
p1972
aS'as'
p1973
ag243
ag244
as(S'utan'
p1974
S'kn'
p1975
tp1976
(lp1977
S'but'
p1978
as(g1408
g5
tp1979
(lp1980
g1412
as(S'stora'
p1981
g5
tp1982
(lp1983
S'large'
p1984
aS'big'
p1985
aS'great'
p1986
as(S's\xc3\xa4kerheten'
p1987
S'nn'
p1988
tp1989
(lp1990
S'certainty'
p1991
aS'safety'
p1992
aS'security'
p1993
as(g371
S'nn'
p1994
tp1995
(lp1996
g374
as(g1612
g958
tp1997
(lp1998
g1615
as(S'hindrar'
p1999
S'vb'
p2000
tp2001
(lp2002
S'prevent'
p2003
aS'hinder'
p2004
aS'check'
p2005
aS'restrain'
p2006
as(S'utveckling'
p2007
g5
tp2008
(lp2009
S'development'
p2010
aS'trend'
p2011
as(S'till\xc3\xa4mpningen'
p2012
S'nn'
p2013
tp2014
(lp2015
S'application'
p2016
as(g92
g5
tp2017
(lp2018
g96
aS'nourish'
p2019
ag97
ag1958
as(g806
S'nn'
p2020
tp2021
(lp2022
g809
ag810
ag811
ag812
ag813
ag814
as(g1578
g953
tp2023
(lp2024
g1581
as(S'f\xc3\xb6r'
p2025
S'ab'
p2026
tp2027
(lp2028
g1501
ag1502
as(S'arbetsstyrkan'
p2029
S'nn'
p2030
tp2031
(lp2032
S'labour (work) force'
p2033
as(g1745
S'nn'
p2034
tp2035
(lp2036
g1748
ag1749
ag1750
ag1751
as(S'ber\xc3\xa4ttigade'
p2037
S'jj'
p2038
tp2039
(lp2040
S'authorized'
p2041
aS'entitled'
p2042
aS'justified'
p2043
aS'legitimate'
p2044
as(S'verktyg'
p2045
S'nn'
p2046
tp2047
(lp2048
S'tool'
p2049
as(g276
g1262
tp2050
(lp2051
g279
ag280
ag281
ag282
as(g428
S'vb'
p2052
tp2053
(lp2054
g431
ag432
ag433
as(g1843
S'vb'
p2055
tp2056
(lp2057
g1846
ag1847
ag1848
ag1849
ag1850
ag1851
ag1852
as(S'begr\xc3\xa4nsning'
p2058
g5
tp2059
(lp2060
S'bounds'
p2061
aS'restriction'
p2062
aS'limitation'
p2063
as(g250
S'nn'
p2064
tp2065
(lp2066
g253
as(g1702
g5
tp2067
(lp2068
g1706
ag1707
ag1708
as(S'i'
p2069
S'ab'
p2070
tp2071
(lp2072
S'at'
p2073
aS'on'
p2074
as(S'vilja'
p2075
S'nn'
p2076
tp2077
(lp2078
g596
as(S'europeiska'
p2079
g5
tp2080
(lp2081
S'European'
p2082
as(g1132
S'nn'
p2083
tp2084
(lp2085
g1135
as(g1981
S'jj'
p2086
tp2087
(lp2088
g1984
ag1985
ag1986
as(g1360
g5
tp2089
(lp2090
g1364
as(g1756
S'nn'
p2091
tp2092
(lp2093
g1759
ag1760
as(g1497
S'kn'
p2094
tp2095
(lp2096
g1500
as(g1244
g5
tp2097
(lp2098
g1248
as(S'h\xc3\xb6rande'
p2099
g5
tp2100
(lp2101
S'domiciled'
p2102
as(S'utanf\xc3\xb6r'
p2103
S'pp'
p2104
tp2105
(lp2106
S'outside'
p2107
as(S'speciellt'
p2108
g5
tp2109
(lp2110
S'special'
p2111
as(S'intressen'
p2112
g5
tp2113
(lp2114
S'interest'
p2115
as(g1420
S'pp'
p2116
tp2117
(lp2118
g1423
ag1424
ag1425
ag1426
as(S'en'
p2119
S'pn'
p2120
tp2121
(lp2122
g1873
as(g1455
g5
tp2123
(lp2124
g1459
as(g1921
g5
tp2125
(lp2126
g1925
ag1926
as(S'komma'
p2127
S'vb'
p2128
tp2129
(lp2130
S'arouse'
p2131
aS'prompt'
p2132
aS'arrive'
p2133
aS'come'
p2134
aS'come from'
p2135
aS'will'
p2136
aS'be going to'
p2137
as(g267
g5
tp2138
(lp2139
g271
ag272
as(g2069
S'pp'
p2140
tp2141
(lp2142
S'as'
p2143
aS'at'
p2144
aS'in'
p2145
aS'for'
p2146
aS'on'
p2147
aS'of'
p2148
aS'to'
p2149
as(g1987
g5
tp2150
(lp2151
g1991
ag1992
ag1993
as(g2058
S'nn'
p2152
tp2153
(lp2154
g2061
ag2062
ag2063
as(S'av'
p2155
S'ab'
p2156
tp2157
(lp2158
g1065
ag1066
as(g952
g5
tp2159
(lp2160
g956
as(g540
g5
tp2161
(lp2162
g544
ag545
ag546
ag547
as(g883
g5
tp2163
(lp2164
g887
as(S'inr\xc3\xa4tta'
p2165
S'vb'
p2166
tp2167
(lp2168
S'establish'
p2169
aS'found'
p2170
aS'start'
p2171
aS'set up'
p2172
as(g1821
S'vb'
p2173
tp2174
(lp2175
g1824
as(g220
S'nn'
p2176
tp2177
(lp2178
g223
ag224
as(S'resebranschen'
p2179
S'nn'
p2180
tp2181
(lp2182
S'travel industry'
p2183
as(g2112
S'nn'
p2184
tp2185
(lp2186
g2115
as(g1347
S'jj'
p2187
tp2188
(lp2189
g1350
ag1351
as(g1677
g5
tp2190
(lp2191
g1680
ag1681
ag1682
as(S'under'
p2192
S'pp'
p2193
tp2194
(lp2195
S'beneath'
p2196
aS'below'
p2197
aS'during'
p2198
aS'under'
p2199
aS'in'
p2200
as(S'h\xc3\xa4nsyn'
p2201
g5
tp2202
(lp2203
S'consideration'
p2204
aS'respect'
p2205
as(S'intresserade'
p2206
S'jj'
p2207
tp2208
(lp2209
g1876
as(g2012
g5
tp2210
(lp2211
g2016
as(S'kvalifikationerna'
p2212
g5
tp2213
(lp2214
S'qualifications'
p2215
as(g1524
S'nn'
p2216
tp2217
(lp2218
g1527
ag1528
ag1529
ag1530
as(g962
g5
tp2219
(lp2220
g966
as(g821
g5
tp2221
(lp2222
g825
as(S's\xc3\xa5'
p2223
S'kn'
p2224
tp2225
(lp2226
g1772
as(S'senaste'
p2227
g1005
tp2228
(lp2229
S'last'
p2230
as(S'ge'
p2231
S'vb'
p2232
tp2233
(lp2234
S'give'
p2235
as(g1903
S'nn'
p2236
tp2237
(lp2238
g1906
ag1907
ag1908
as(g1711
S'jj'
p2239
tp2240
(lp2241
g1714
ag1715
as(g905
g5
tp2242
(lp2243
g909
ag2107
as(S'gladde'
p2244
g5
tp2245
(lp2246
S'delight'
p2247
aS'please'
p2248
aS'give pleasure'
p2249
aS'gave (sby) pleasure'
p2250
as(g553
S'ab'
p2251
tp2252
(lp2253
g556
ag557
as(g1831
g5
tp2254
(lp2255
g1835
ag790
ag791
ag792
as(g1327
S'ab'
p2256
tp2257
(lp2258
g1330
as(g1554
g5
tp2259
(lp2260
g1558
ag1559
as(S'ber\xc3\xa4ttigade'
p2261
g5
tp2262
(lp2263
S'authorize'
p2264
aS'entitle'
p2265
ag2041
ag2042
ag2043
ag2044
as(g1538
S'jj'
p2266
tp2267
(lp2268
g1541
as(S'inre'
p2269
S'nn'
p2270
tp2271
(lp2272
g370
as(g878
S'nn'
p2273
tp2274
(lp2275
g881
as(g801
g5
tp2276
(lp2277
g805
as(g150
S'ab'
p2278
tp2279
(lp2280
g153
ag154
ag155
as(g1792
g5
tp2281
(lp2282
g1796
ag1797
as(g581
S'pn'
p2283
tp2284
(lp2285
g584
ag585
ag586
ag589
as(S'datorernas'
p2286
S'nn'
p2287
tp2288
(lp2289
S'computers'
p2290
as(S'v\xc3\xa5r'
p2291
g5
tp2292
(lp2293
S'our'
p2294
aS'spring'
p2295
as(g1809
S'nn'
p2296
tp2297
(lp2298
g1812
ag1813
ag1814
ag1815
as(g980
S'jj'
p2299
tp2300
(lp2301
g983
as(g1127
g5
tp2302
(lp2303
g1131
as(S'undantag'
p2304
S'nn'
p2305
tp2306
(lp2307
S'exception'
p2308
as(g1931
S'vb'
p2309
tp2310
(lp2311
g1934
ag1935
ag1936
as(S'noga'
p2312
g5
tp2313
(lp2314
S'careful'
p2315
ag1829
ag1830
as(g713
g5
tp2316
(lp2317
g717
ag718
ag719
ag720
ag721
as(g1492
g5
tp2318
(lp2319
g1496
ag1034
as(g2099
S'jj'
p2320
tp2321
(lp2322
g2102
as(S'undantag'
p2323
S'vb'
p2324
tp2325
(lp2326
S'exempt'
p2327
aS'except'
p2328
as(g826
g5
tp2329
(lp2330
g830
as(g1885
S'nn'
p2331
tp2332
(lp2333
g1888
as(S'bara'
p2334
S'ab'
p2335
tp2336
(lp2337
S'merely'
p2338
aS'only'
p2339
aS'just'
p2340
as(g642
g5
tp2341
(lp2342
g646
as(S'b\xc3\xa4ttre'
p2343
S'ab'
p2344
tp2345
(lp2346
g1763
ag1764
as(S'mellan'
p2347
g5
tp2348
(lp2349
S'between'
p2350
as(g1548
g5
tp2351
(lp2352
g1552
ag1553
as(g629
S'nn'
p2353
tp2354
(lp2355
g632
as(g2291
S'pn'
p2356
tp2357
(lp2358
g2294
as(S'e-handel'
p2359
g5
tp2360
(lp2361
S'E-Commerce'
p2362
as(g2212
S'nn'
p2363
tp2364
(lp2365
g2215
as(g848
S'nn'
p2366
tp2367
(lp2368
g851
ag852
ag853
ag854
as(S'andra'
p2369
S'vb'
p2370
tp2371
(lp2372
g1622
ag1623
ag1624
ag1625
as(S'l\xc3\xa4gger'
p2373
g5
tp2374
(lp2375
S'place'
p2376
aS'put'
p2377
aS'set'
p2378
aS'lay'
p2379
as(g1059
S'pp'
p2380
tp2381
(lp2382
g1062
ag1063
ag1064
as(g939
S'jj'
p2383
tp2384
(lp2385
g942
as(g1916
S'nn'
p2386
tp2387
(lp2388
g1919
ag1920
as(g2165
g5
tp2389
(lp2390
g2169
ag2170
ag2171
ag2172
as(g2286
g5
tp2391
(lp2392
g2290
as(g975
S'nn'
p2393
tp2394
(lp2395
g978
ag979
as(g56
g5
tp2396
(lp2397
g60
as(S'e-handelsmarknad'
p2398
S'nn'
p2399
tp2400
(lp2401
S'E-Commerce Market'
p2402
as(S'utforma'
p2403
g611
tp2404
(lp2405
S'design'
p2406
as(g573
g5
tp2407
(lp2408
g577
as(g509
g5
tp2409
(lp2410
g513
as(S'bara'
p2411
S'jj'
p2412
tp2413
(lp2414
S'naked'
p2415
aS'bare'
p2416
as(g1106
g5
tp2417
(lp2418
g1110
ag1111
ag1112
as(g1208
g5
tp2419
(lp2420
g1212
as(S'tekniska'
p2421
S'jj'
p2422
tp2423
(lp2424
S'[technically] adept'
p2425
aS'technical'
p2426
as(S'marknaden'
p2427
S'nn'
p2428
tp2429
(lp2430
S'market'
p2431
as(g1193
g5
tp2432
(lp2433
g1197
as(g534
S'nn'
p2434
tp2435
(lp2436
g537
ag538
as(g758
S'nn'
p2437
tp2438
(lp2439
g761
as(S'r\xc3\xa4ttm\xc3\xa4tiga'
p2440
g5
tp2441
(lp2442
S'rightful'
p2443
aS'lawful'
p2444
as(g2231
g5
tp2445
(lp2446
g2235
as(S's\xc3\xa5'
p2447
S'ab'
p2448
tp2449
(lp2450
g1773
ag1774
as(g135
g5
tp2451
(lp2452
g139
ag140
ag141
ag142
ag143
ag144
as(S'mer'
p2453
S'jj'
p2454
tp2455
(lp2456
S'more'
p2457
as(g2312
S'jj'
p2458
tp2459
(lp2460
g2315
as(g1868
S'article'
p2461
tp2462
(lp2463
g1373
ag1871
as(S'p\xc3\xa5'
p2464
S'pp'
p2465
tp2466
(lp2467
S'after'
p2468
aS'in'
p2469
aS'during'
p2470
aS'of'
p2471
aS'at'
p2472
aS'on'
p2473
as(g1045
S'jj'
p2474
tp2475
(lp2476
g1048
as(g1181
g5
tp2477
(lp2478
g1185
ag1186
ag971
ag993
ag994
ag1187
as(S'fr\xc3\xa5ga'
p2479
S'vb'
p2480
tp2481
(lp2482
S'ask'
p2483
as(g2359
S'nn'
p2484
tp2485
(lp2486
g2362
as(g1942
g5
tp2487
(lp2488
g1946
as(g673
g5
tp2489
(lp2490
g677
as(g1999
g5
tp2491
(lp2492
g2003
ag2004
ag2005
ag2006
as(S'forts\xc3\xa4tter'
p2493
g5
tp2494
(lp2495
S'continue'
p2496
aS'go on'
p2497
aS'keep on'
p2498
aS'carry on'
p2499
as(S'skydds\xc3\xa5tg\xc3\xa4rder'
p2500
g5
tp2501
(lp2502
S'protective'
p2503
as(g1634
S'jj'
p2504
tp2505
(lp2506
g1637
as(g15
S'nn'
p2507
tp2508
(lp2509
g18
ag19
ag20
as(S'vara'
p2510
g5
tp2511
(lp2512
S'am'
p2513
aS'are'
p2514
aS'is'
p2515
aS'be'
p2516
aS'last'
p2517
ag1104
ag1105
as(g2440
S'jj'
p2518
tp2519
(lp2520
g2443
ag2444
as(g423
g5
tp2521
(lp2522
g427
as(g1479
S'pn'
p2523
tp2524
(lp2525
g1482
ag1483
ag1484
ag1485
as(S'under'
p2526
S'nn'
p2527
tp2528
(lp2529
S'wonder'
p2530
as(g1113
g5
tp2531
(lp2532
g1117
ag1118
ag1119
ag1120
ag1121
ag1240
ag1241
ag1242
ag1243
as(g910
g5
tp2533
(lp2534
g913
as(g1145
S'nn'
p2535
tp2536
(lp2537
g1148
as(g2127
g5
tp2538
(lp2539
g2131
ag2132
ag2133
ag2134
ag2135
ag655
ag2136
ag2137
as(g935
S'kn'
p2540
tp2541
(lp2542
g938
as(S'n\xc3\xa4r'
p2543
S'vb'
p2544
tp2545
(lp2546
g2019
as(S'n\xc3\xb6dv\xc3\xa4ndigheten'
p2547
g5
tp2548
(lp2549
S'necessity'
p2550
as(S'mina'
p2551
S'pn'
p2552
tp2553
(lp2554
g1891
as(g2421
g5
tp2555
(lp2556
g2425
ag2426
as(S'konsumentskyddsdirektiv'
p2557
g5
tp2558
(lp2559
S'consumer protection directives'
p2560
as(S'mer'
p2561
S'ab'
p2562
tp2563
(lp2564
S'more'
p2565
aS'additional'
p2566
as(g2045
g5
tp2567
(lp2568
g2049
as(g231
S'vb'
p2569
tp2570
(lp2571
g234
as(g2304
g5
tp2572
(lp2573
g2308
ag2327
ag2328
as(g1041
S'nn'
p2574
tp2575
(lp2576
g1044
as(g410
g5
tp2577
(lp2578
g414
as(S'andra'
p2579
S'rg'
p2580
tp2581
(lp2582
g1626
as(g2201
S'nn'
p2583
tp2584
(lp2585
g2204
ag2205
as(g1080
S'nn'
p2586
tp2587
(lp2588
g1083
ag1084
as(g283
g5
tp2589
(lp2590
g287
ag288
as(g156
S'jj'
p2591
tp2592
(lp2593
g159
as(g2069
g5
tp2594
(lp2595
g2143
ag2144
ag2145
ag2146
ag2147
ag2148
ag2149
ag2073
ag2074
as(g1544
g5
tp2596
(lp2597
g1547
as(g1091
g5
tp2598
(lp2599
g1095
as(g1738
g5
tp2600
(lp2601
g1742
ag1743
ag1744
as(S'b\xc3\xb6r'
p2602
S'vb'
p2603
tp2604
(lp2605
S'ought to'
p2606
aS'should'
p2607
as(g1278
S'nn'
p2608
tp2609
(lp2610
g1281
ag1282
as(g2179
g5
tp2611
(lp2612
g2183
as(S'procent'
p2613
S'nn'
p2614
tp2615
(lp2616
S'per cent'
p2617
as(g289
S'nn'
p2618
tp2619
(lp2620
g292
as(g2079
S'jj'
p2621
tp2622
(lp2623
g2082
as(g1213
g5
tp2624
(lp2625
g1217
as(S'till'
p2626
g5
tp2627
(lp2628
S'another'
p2629
aS'more'
p2630
ag193
ag194
ag195
ag196
ag197
ag198
ag199
as(g2227
g5
tp2631
(lp2632
g2230
as(g2192
g5
tp2633
(lp2634
g2196
ag2197
ag2198
ag2199
ag2200
ag2530
as(g1767
S'pn'
p2635
tp2636
(lp2637
g1770
ag1771
as(g173
S'jj'
p2638
tp2639
(lp2640
g176
ag177
ag178
ag179
ag180
as(g2403
g5
tp2641
(lp2642
g2406
as(g207
g451
tp2643
(lp2644
g210
as(S'n\xc3\xa4tbutiker'
p2645
S'nn'
p2646
tp2647
(lp2648
S'online stores'
p2649
as(g1440
S'nn'
p2650
tp2651
(lp2652
g1443
as(g2261
S'vb'
p2653
tp2654
(lp2655
g2264
ag2265
as(g1249
g5
tp2656
(lp2657
g1253
as(g1969
S'kn'
p2658
tp2659
(lp2660
g1972
ag1973
as(g333
g5
tp2661
(lp2662
g337
as(g211
g5
tp2663
(lp2664
g215
as(S'slutits'
p2665
g5
tp2666
(lp2667
S'concluded'
p2668
as(g181
S'nn'
p2669
tp2670
(lp2671
g184
as(g888
g5
tp2672
(lp2673
g892
as(g1071
g5
tp2674
(lp2675
g1075
ag1076
as(g2665
g1262
tp2676
(lp2677
g2668
as(g486
g5
tp2678
(lp2679
g490
ag491
as(g1644
g5
tp2680
(lp2681
g1648
as(g1149
S'kn'
p2682
tp2683
(lp2684
g1152
as(g1314
g620
tp2685
(lp2686
g1317
ag1318
as(S'distansavtal'
p2687
S'nn'
p2688
tp2689
(lp2690
S'distance contracts'
p2691
as(g1898
g5
tp2692
(lp2693
g1902
as(g2479
g5
tp2694
(lp2695
g2483
ag1490
ag1491
as(g298
S'ab'
p2696
tp2697
(lp2698
g301
as(g1309
S'ab'
p2699
tp2700
(lp2701
g1312
ag1313
as(g727
S'nn'
p2702
tp2703
(lp2704
g730
ag731
ag732
as(S'v\xc3\xa5r'
p2705
g1653
tp2706
(lp2707
g2295
as(g293
g5
tp2708
(lp2709
g297
as(g2687
g5
tp2710
(lp2711
g2691
as(g74
g5
tp2712
(lp2713
g78
ag79
ag80
as(g2510
S'vb'
p2714
tp2715
(lp2716
g2513
ag2514
ag2515
ag2516
ag2517
as(g1582
g5
tp2717
(lp2718
g1586
ag1587
ag1588
ag1589
ag1590
as(g2613
g5
tp2719
(lp2720
g2617
as(g558
S'vb'
p2721
tp2722
(lp2723
g561
ag562
ag563
ag564
as(g2500
g1262
tp2724
(lp2725
g2503
as(g2029
g5
tp2726
(lp2727
g2033
as(g1015
g5
tp2728
(lp2729
g5
ag1978
ag409
as(g394
g5
tp2730
(lp2731
g398
as(g943
g1854
tp2732
(lp2733
g946
as(S'den'
p2734
S'article'
p2735
tp2736
(lp2737
g590
ag591
as(S'vart'
p2738
S'ab'
p2739
tp2740
(lp2741
g1234
as(g1035
S'kn'
p2742
tp2743
(lp2744
g1038
as(g1963
S'jj'
p2745
tp2746
(lp2747
g1966
as(g2645
g5
tp2748
(lp2749
g2649
as(g2244
S'vb'
p2750
tp2751
(lp2752
g2247
ag2248
ag2249
ag2250
as(g1661
S'vb'
p2753
tp2754
(lp2755
g1664
ag1665
ag1666
ag1667
ag1668
ag1669
as(g358
g2474
tp2756
(lp2757
g361
ag362
ag363
as(S'absolut'
p2758
S'ab'
p2759
tp2760
(lp2761
g1658
ag1659
ag1660
as(g2347
S'pp'
p2762
tp2763
(lp2764
g2350
as(S'en'
p2765
S'ab'
p2766
tp2767
(lp2768
g1872
as(g2373
S'vb'
p2769
tp2770
(lp2771
g2376
ag2377
ag2378
ag2379
as(g1337
g5
tp2772
(lp2773
g1341
ag1342
ag1343
ag1344
ag1694
ag1695
ag1696
as(g2602
g5
tp2774
(lp2775
g2606
ag2607
as(g741
S'nn'
p2776
tp2777
(lp2778
g744
as(g2626
S'ab'
p2779
tp2780
(lp2781
g2629
ag2630
as(g2453
g5
tp2782
(lp2783
g2457
ag2565
ag2566
as(g2557
S'nn'
p2784
tp2785
(lp2786
g2560
as(g469
S'nn'
p2787
tp2788
(lp2789
g472
ag473
as(g450
g5
tp2790
(lp2791
g454
as(g2398
g5
tp2792
(lp2793
g2402
as(g1427
S'nn'
p2794
tp2795
(lp2796
g1430
ag1431
ag1432
ag1433
as(g656
g5
tp2797
(lp2798
g660
as(g2108
S'jj'
p2799
tp2800
(lp2801
g2111
as(S'efter'
p2802
S'pp'
p2803
tp2804
(lp2805
g1367
ag1368
ag1369
as(g216
g136
tp2806
(lp2807
g219
as(g683
g5
tp2808
(lp2809
g687
as(g704
g5
tp2810
(lp2811
g708
ag709
ag710
ag711
ag712
as(g1565
g5
tp2812
(lp2813
g1569
ag1780
as(g916
g5
tp2814
(lp2815
g920
ag2338
ag2339
ag2340
ag2415
ag2416
as(g1392
g2750
tp2816
(lp2817
g1395
ag1396
as(g1141
S'nn'
p2818
tp2819
(lp2820
g1144
as(g781
g5
tp2821
(lp2822
g785
as(g2007
S'nn'
p2823
tp2824
(lp2825
g2010
ag2011
as(g750
S'jj'
p2826
tp2827
(lp2828
g753
as(S's\xc3\xa5'
p2829
S'vb'
p2830
tp2831
(lp2832
g1775
as(g2547
S'nn'
p2833
tp2834
(lp2835
g2550
as(g2427
g5
tp2836
(lp2837
g2431
as(g2493
S'vb'
p2838
tp2839
(lp2840
g2496
ag2497
ag2498
ag2499
as(g1716
g953
tp2841
(lp2842
g1719
as(S'om'
p2843
g2682
tp2844
(lp2845
g393
as(g602
g5
tp2846
(lp2847
g606
as(g1627
S'pn'
p2848
tp2849
(lp2850
g1630
ag1631
ag1632
ag1633
as(g2464
g5
tp2851
(lp2852
g2468
ag521
ag2469
ag2470
ag2471
ag2472
ag2473
as.