(dp0
S''
p1
g1
sS'all'
p2
S'all'
p3
sS'consider'
p4
S'consid'
p5
sS'global'
p6
S'global'
p7
sS'dynamic'
p8
S'dynam'
p9
sS'per'
p10
S'per'
p11
sS'go'
p12
S'go'
p13
sS'settlement'
p14
S'settlement'
p15
sS'certainly'
p16
S'certainli'
p17
sS'careful'
p18
S'care'
p19
sS'opportunities'
p20
S'opportun'
p21
sS'to'
p22
S'to'
p23
sS'under'
p24
S'under'
p25
sS'collaborate'
p26
S'collabor'
p27
sS'advantage'
p28
S'advantag'
p29
sS'rise'
p30
S'rise'
p31
sS'exception'
p32
S'except'
p33
sS'liability'
p34
S'liabil'
p35
sS'every'
p36
S'everi'
p37
sS'affect'
p38
S'affect'
p39
sS'cause'
p40
S'caus'
p41
sS'list'
p42
S'list'
p43
sS'large'
p44
S'larg'
p45
sS'round'
p46
S'round'
p47
sS'concluded'
p48
S'conclud'
p49
sS'prevent'
p50
S'prevent'
p51
sS'force'
p52
S'forc'
p53
sS'portable'
p54
S'portabl'
p55
sS'trend'
p56
S'trend'
p57
sS'consistent'
p58
S'consist'
p59
sS'past'
p60
S'past'
p61
sS'second'
p62
S'second'
p63
sS'design'
p64
S'design'
p65
sS'further'
p66
S'further'
p67
sS'odd'
p68
S'odd'
p69
sS'even'
p70
S'even'
p71
sS'employ'
p72
S'employ'
p73
sS'what'
p74
S'what'
p75
sS'defence'
p76
S'defenc'
p77
sS'directive'
p78
S'direct'
p79
sS'favour'
p80
S'favour'
p81
sS'access'
p82
S'access'
p83
sS'above'
p84
S'abov'
p85
sS'conduct'
p86
S'conduct'
p87
sS'new'
p88
S'new'
p89
sS'net'
p90
S'net'
p91
sS'appeal'
p92
S'appeal'
p93
sS'ever'
p94
S'ever'
p95
sS'public'
p96
S'public'
p97
sS'supporting'
p98
S'support'
p99
sS'commercial'
p100
S'commerci'
p101
sS'here'
p102
S'here'
p103
sS'protection'
p104
S'protect'
p105
sS'consideration'
p106
S'consider'
p107
sS'[technically]'
p108
S'[technically]'
p109
sS'dry'
p110
S'dri'
p111
sS'great'
p112
S'great'
p113
sS'engage'
p114
S'engag'
p115
sS'receive'
p116
S'receiv'
p117
sS'[us])'
p118
S'[us])'
p119
sS'survey'
p120
S'survey'
p121
sS'action'
p122
S'action'
p123
sS'authorize'
p124
S'author'
p125
sS'via'
p126
S'via'
p127
sS'divide'
p128
S'divid'
p129
sS'merely'
p130
S'mere'
p131
sS'confession'
p132
S'confess'
p133
sS'private'
p134
S'privat'
p135
sS'excellently'
p136
S'excel'
p137
sS'ask'
p138
S'ask'
p139
sS'apply'
p140
S'appli'
p141
sS'establish'
p142
S'establish'
p143
sS'market'
p144
S'market'
p145
sS'everybody'
p146
S'everybodi'
p147
sS'confidence'
p148
S'confid'
p149
sS'from'
p150
S'from'
p151
sS'army'
p152
S'armi'
p153
sS'give'
p154
S'give'
p155
sS'two'
p156
S'two'
p157
sS'next'
p158
S'next'
p159
sS'few'
p160
S'few'
p161
sS'asset'
p162
S'asset'
p163
sS'type'
p164
S'type'
p165
sS'until'
p166
S'until'
p167
sS'more'
p168
S'more'
p169
sS'engender'
p170
S'engend'
p171
sS'on'
p172
S'on'
p173
sS'company'
p174
S'compani'
p175
sS'about'
p176
S'about'
p177
sS'cooperate'
p178
S'cooper'
p179
sS'excellent'
p180
S'excel'
p181
sS'must'
p182
S'must'
p183
sS'me'
p184
S'me'
p185
sS'room'
p186
S'room'
p187
sS'this'
p188
S'thi'
p189
sS'work'
p190
S'work'
p191
sS'can'
p192
S'can'
p193
sS'theirs'
p194
S'their'
p195
sS'following'
p196
S'follow'
p197
sS'arrive'
p198
S'arriv'
p199
sS'my'
p200
S'my'
p201
sS'example'
p202
S'exampl'
p203
sS'ule'
p204
S'ule'
p205
sS'legible'
p206
S'legibl'
p207
sS'prompt'
p208
S'prompt'
p209
sS'want'
p210
S'want'
p211
sS'providers'
p212
S'provid'
p213
sS'tax'
p214
S'tax'
p215
sS'strengthen'
p216
S'strengthen'
p217
sS'protective'
p218
S'protect'
p219
sS'slip'
p220
S'slip'
p221
sS'absolute'
p222
S'absolut'
p223
sS'available'
p224
S'avail'
p225
sS'travel'
p226
S'travel'
p227
sS'r\xc3\xb4le'
p228
S'r\xc3\xb4le'
p229
sS'utilize'
p230
S'util'
p231
sS'how'
p232
S'how'
p233
sS'pure'
p234
S'pure'
p235
sS'guarantee'
p236
S'guarante'
p237
sS'economy'
p238
S'economi'
p239
sS'mould'
p240
S'mould'
p241
sS'product'
p242
S'product'
p243
sS'may'
p244
S'may'
p245
sS'use'
p246
S'use'
p247
sS'produce'
p248
S'produc'
p249
sS'lay'
p250
S'lay'
p251
sS'such'
p252
S'such'
p253
sS'law'
p254
S'law'
p255
sS'data'
p256
S'data'
p257
sS'grow'
p258
S'grow'
p259
sS'man'
p260
S'man'
p261
sS'a'
p262
g262
sS'stress'
p263
S'stress'
p264
sS'short'
p265
S'short'
p266
sS'certainty'
p267
S'certainti'
p268
sS'third'
p269
S'third'
p270
sS'stimulate'
p271
S'stimul'
p272
sS'e-commerce'
p273
S'e-commerc'
p274
sS'so'
p275
S'so'
p276
sS'pleasure'
p277
S'pleasur'
p278
sS'secured'
p279
S'secur'
p280
sS'outlet'
p281
S'outlet'
p282
sS'restriction'
p283
S'restrict'
p284
sS'over'
p285
S'over'
p286
sS'mainly'
p287
S'mainli'
p288
sS'trade'
p289
S'trade'
p290
sS'including'
p291
S'includ'
p292
sS'crossborder'
p293
S'crossbord'
p294
sS'still'
p295
S'still'
p296
sS'its'
p297
S'it'
p298
sS'group'
p299
S'group'
p300
sS'better'
p301
S'better'
p302
sS'restrain'
p303
S'restrain'
p304
sS'main'
p305
S'main'
p306
sS'them'
p307
S'them'
p308
sS'good'
p309
S'good'
p310
sS'than'
p311
S'than'
p312
sS'introduce'
p313
S'introduc'
p314
sS'number'
p315
S'number'
p316
sS'not'
p317
S'not'
p318
sS'(dialog'
p319
S'(dialog'
p320
sS'discuss'
p321
S'discuss'
p322
sS'possess'
p323
S'possess'
p324
sS'undertaking'
p325
S'undertak'
p326
sS'reasonable'
p327
S'reason'
p328
sS'found'
p329
S'found'
p330
sS'beneath'
p331
S'beneath'
p332
sS'european'
p333
S'european'
p334
sS'everyone'
p335
S'everyon'
p336
sS'companies'
p337
S'compani'
p338
sS'lawful'
p339
S'law'
p340
sS'plant'
p341
S'plant'
p342
sS'programs'
p343
S'program'
p344
sS'trading'
p345
S'trade'
p346
sS'undertake'
p347
S'undertak'
p348
sS'year'
p349
S'year'
p350
sS'eu'
p351
S'eu'
p352
sS'our'
p353
S'our'
p354
sS'insurance'
p355
S'insur'
p356
sS'special'
p357
S'special'
p358
sS'out'
p359
S'out'
p360
sS'open'
p361
S'open'
p362
sS'defend'
p363
S'defend'
p364
sS'since'
p365
S'sinc'
p366
sS'safety'
p367
S'safeti'
p368
sS'internet'
p369
S'internet'
p370
sS'got'
p371
S'got'
p372
sS'forth'
p373
S'forth'
p374
sS'assurance'
p375
S'assur'
p376
sS'she'
p377
S'she'
p378
sS'after'
p379
S'after'
p380
sS'possibility'
p381
S'possibl'
p382
sS'quite'
p383
S'quit'
p384
sS'completely'
p385
S'complet'
p386
sS'besides'
p387
S'besid'
p388
sS'put'
p389
S'put'
p390
sS'advance'
p391
S'advanc'
p392
sS'training'
p393
S'train'
p394
sS'strasbourg'
p395
S'strasbourg'
p396
sS'rule'
p397
S'rule'
p398
sS'computers'
p399
S'comput'
p400
sS'keep'
p401
S'keep'
p402
sS'place'
p403
S'place'
p404
sS're-'
p405
S're-'
p406
sS'assuredly'
p407
S'assuredli'
p408
sS'first'
p409
S'first'
p410
sS'domiciled'
p411
S'domicil'
p412
sS'necessity'
p413
S'necess'
p414
sS'question'
p415
S'question'
p416
sS'primary'
p417
S'primari'
p418
sS'one'
p419
S'one'
p420
sS'wash'
p421
S'wash'
p422
sS'another'
p423
S'anoth'
p424
sS'carry'
p425
S'carri'
p426
sS'electronic'
p427
S'electron'
p428
sS'engineer'
p429
S'engin'
p430
sS'service'
p431
S'servic'
p432
sS'start'
p433
S'start'
p434
sS'foreign-based'
p435
S'foreign-bas'
p436
sS'system'
p437
S'system'
p438
sS'adopted'
p439
S'adopt'
p440
sS'too'
p441
S'too'
p442
sS'starch'
p443
S'starch'
p444
sS'structures'
p445
S'structur'
p446
sS'inner'
p447
S'inner'
p448
sS'that'
p449
S'that'
p450
sS'tool'
p451
S'tool'
p452
sS'exactly'
p453
S'exactli'
p454
sS'serve'
p455
S'serv'
p456
sS'part'
p457
S'part'
p458
sS'peculiar'
p459
S'peculiar'
p460
sS'population'
p461
S'popul'
p462
sS'distance'
p463
S'distanc'
p464
sS'commodity'
p465
S'commod'
p466
sS'require'
p467
S'requir'
p468
sS'instruction'
p469
S'instruct'
p470
sS'see'
p471
S'see'
p472
sS'matter'
p473
S'matter'
p474
sS'future'
p475
S'futur'
p476
sS'venture'
p477
S'ventur'
p478
sS'were'
p479
S'were'
p480
sS'bet'
p481
S'bet'
p482
sS'and'
p483
S'and'
p484
sS'runner'
p485
S'runner'
p486
sS'mine'
p487
S'mine'
p488
sS'say'
p489
S'say'
p490
sS'manner'
p491
S'manner'
p492
sS'have'
p493
S'have'
p494
sS'need'
p495
S'need'
p496
sS'clearly'
p497
S'clearli'
p498
sS'storage'
p499
S'storag'
p500
sS'-'
p501
S'-'
p502
sS'also'
p503
S'also'
p504
sS'labour'
p505
S'labour'
p506
sS'directives'
p507
S'direct'
p508
sS'take'
p509
S'take'
p510
sS'which'
p511
S'which'
p512
sS'online'
p513
S'onlin'
p514
sS'interior'
p515
S'interior'
p516
sS'ego'
p517
S'ego'
p518
sS'wonder'
p519
S'wonder'
p520
sS'play'
p521
S'play'
p522
sS'shall'
p523
S'shall'
p524
sS'who'
p525
S'who'
p526
sS'simplify'
p527
S'simplifi'
p528
sS'plan'
p529
S'plan'
p530
sS'payment'
p531
S'payment'
p532
sS'clear'
p533
S'clear'
p534
sS'later'
p535
S'later'
p536
sS'cover'
p537
S'cover'
p538
sS'definitely'
p539
S'definit'
p540
sS'clean'
p541
S'clean'
p542
sS'enterprise'
p543
S'enterpris'
p544
sS'amendment'
p545
S'amend'
p546
sS'internet-based'
p547
S'internet-bas'
p548
sS'consumer'
p549
S'consum'
p550
sS'quantity'
p551
S'quantiti'
p552
sS'shop'
p553
S'shop'
p554
sS'defended'
p555
S'defend'
p556
sS'bring'
p557
S'bring'
p558
sS'session'
p559
S'session'
p560
sS'faster'
p561
S'faster'
p562
sS'queer'
p563
S'queer'
p564
sS'carefully'
p565
S'care'
p566
sS'fine'
p567
S'fine'
p568
sS'debate'
p569
S'debat'
p570
sS'notice'
p571
S'notic'
p572
sS'should'
p573
S'should'
p574
sS'only'
p575
S'onli'
p576
sS'going'
p577
S'go'
p578
sS'partake'
p579
S'partak'
p580
sS'adequate'
p581
S'adequ'
p582
sS'do'
p583
S'do'
p584
sS'his'
p585
S'hi'
p586
sS'get'
p587
S'get'
p588
sS'contracts'
p589
S'contract'
p590
sS'comma'
p591
S'comma'
p592
sS'watch'
p593
S'watch'
p594
sS'perceive'
p595
S'perceiv'
p596
sS'foremost'
p597
S'foremost'
p598
sS'legitimate'
p599
S'legitim'
p600
sS'probably'
p601
S'probabl'
p602
sS'during'
p603
S'dure'
p604
sS'procedures'
p605
S'procedur'
p606
sS'neither'
p607
S'neither'
p608
sS'naked'
p609
S'nake'
p610
sS'common'
p611
S'common'
p612
sS'contain'
p613
S'contain'
p614
sS'through'
p615
S'through'
p616
sS'grab'
p617
S'grab'
p618
sS'where'
p619
S'where'
p620
sS'valid'
p621
S'valid'
p622
sS'husband'
p623
S'husband'
p624
sS'view'
p625
S'view'
p626
sS'preserve'
p627
S'preserv'
p628
sS'set'
p629
S'set'
p630
sS'accord'
p631
S'accord'
p632
sS'bounds'
p633
S'bound'
p634
sS'reinforce'
p635
S'reinforc'
p636
sS'computer'
p637
S'comput'
p638
sS'bare'
p639
S'bare'
p640
sS'are'
p641
S'are'
p642
sS'bark'
p643
S'bark'
p644
sS'concern'
p645
S'concern'
p646
sS'said'
p647
S'said'
p648
sS'please'
p649
S'pleas'
p650
sS'outside'
p651
S'outsid'
p652
sS'determined'
p653
S'determin'
p654
sS'between'
p655
S'between'
p656
sS'progress'
p657
S'progress'
p658
sS'justified'
p659
S'justifi'
p660
sS'across'
p661
S'across'
p662
sS'wide'
p663
S'wide'
p664
sS'europe'
p665
S'europ'
p666
sS'we'
p667
S'we'
p668
sS'implementing'
p669
S'implement'
p670
sS'job'
p671
S'job'
p672
sS'e-initiative'
p673
S'e-in'
p674
sS'wear'
p675
S'wear'
p676
sS'come'
p677
S'come'
p678
sS'improve'
p679
S'improv'
p680
sS'protect'
p681
S'protect'
p682
sS'last'
p683
S'last'
p684
sS'adept'
p685
S'adept'
p686
sS'pertain'
p687
S'pertain'
p688
sS'according'
p689
S'accord'
p690
sS'contract'
p691
S'contract'
p692
sS'became'
p693
S'becam'
p694
sS'mane'
p695
S'mane'
p696
sS'argue'
p697
S'argu'
p698
sS'whole'
p699
S'whole'
p700
sS'duty'
p701
S'duti'
p702
sS'supply'
p703
S'suppli'
p704
sS'community'
p705
S'commun'
p706
sS'respect'
p707
S'respect'
p708
sS'trust'
p709
S'trust'
p710
sS'speak'
p711
S'speak'
p712
sS'sensible'
p713
S'sensibl'
p714
sS'union'
p715
S'union'
p716
sS'create'
p717
S'creat'
p718
sS'responsibility'
p719
S'respons'
p720
sS'cent'
p721
S'cent'
p722
sS'strategy'
p723
S'strategi'
p724
sS'commission'
p725
S'commiss'
p726
sS'entitle'
p727
S'entitl'
p728
sS'certain'
p729
S'certain'
p730
sS'proposal'
p731
S'propos'
p732
sS'dialogue'
p733
S'dialogu'
p734
sS'influence'
p735
S'influenc'
p736
sS'(work)'
p737
S'(work)'
p738
sS'scrutiny'
p739
S'scrutini'
p740
sS'general'
p741
S'gener'
p742
sS'former'
p743
S'former'
p744
sS'present'
p745
S'present'
p746
sS'case'
p747
S'case'
p748
sS'commerce'
p749
S'commerc'
p750
sS'myself'
p751
S'myself'
p752
sS'look'
p753
S'look'
p754
sS'these'
p755
S'these'
p756
sS'will'
p757
S'will'
p758
sS'technical'
p759
S'technic'
p760
sS'near'
p761
S'near'
p762
sS'balance'
p763
S'balanc'
p764
sS'is'
p765
S'is'
p766
sS'thus'
p767
S'thu'
p768
sS'it'
p769
S'it'
p770
sS'in'
p771
S'in'
p772
sS'decisively'
p773
S'decis'
p774
sS'if'
p775
S'if'
p776
sS'(run)'
p777
S'(run)'
p778
sS'develop'
p779
S'develop'
p780
sS'perform'
p781
S'perform'
p782
sS'make'
p783
S'make'
p784
sS'member'
p785
S'member'
p786
sS'strange'
p787
S'strang'
p788
sS'copying'
p789
S'copi'
p790
sS'document'
p791
S'document'
p792
sS'entitled'
p793
S'entitl'
p794
sS'development'
p795
S'develop'
p796
sS'juniper'
p797
S'junip'
p798
sS'qualifications'
p799
S'qualif'
p800
sS'effect'
p801
S'effect'
p802
sS'delight'
p803
S'delight'
p804
sS'internal'
p805
S'intern'
p806
sS'off'
p807
S'off'
p808
sS'immaterial'
p809
S'immateri'
p810
sS'i'
p811
g811
sS'well'
p812
S'well'
p813
sS'without'
p814
S'without'
p815
sS'person'
p816
S'person'
p817
sS'contact'
p818
S'contact'
p819
sS'position'
p820
S'posit'
p821
sS'the'
p822
S'the'
p823
sS'stores'
p824
S'store'
p825
sS'barking'
p826
S'bark'
p827
sS'just'
p828
S'just'
p829
sS'acknowledgement'
p830
S'acknowledg'
p831
sS'when'
p832
S'when'
p833
sS'laptop'
p834
S'laptop'
p835
sS'cederschi\xc3\xb6ld'
p836
S'cederschi\xc3\xb6ld'
p837
sS'front'
p838
S'front'
p839
sS'shape'
p840
S'shape'
p841
sS'harmonise'
p842
S'harmonis'
p843
sS'thanks'
p844
S'thank'
p845
sS'touch'
p846
S'touch'
p847
sS'yet'
p848
S'yet'
p849
sS'secure'
p850
S'secur'
p851
sS'now'
p852
S'now'
p853
sS'admission'
p854
S'admiss'
p855
sS'except'
p856
S'except'
p857
sS'interested'
p858
S'interest'
p859
sS'exempt'
p860
S'exempt'
p861
sS'usage'
p862
S'usag'
p863
sS'ought'
p864
S'ought'
p865
sS'gave'
p866
S'gave'
p867
sS'big'
p868
S'big'
p869
sS'possible'
p870
S'possibl'
p871
sS'cultural'
p872
S'cultur'
p873
sS'know'
p874
S'know'
p875
sS'world'
p876
S'world'
p877
sS'vague'
p878
S'vagu'
p879
sS'desire'
p880
S'desir'
p881
sS'necessary'
p882
S'necessari'
p883
sS'like'
p884
S'like'
p885
sS'interrupt'
p886
S'interrupt'
p887
sS'benefit'
p888
S'benefit'
p889
sS'continue'
p890
S'continu'
p891
sS'either'
p892
S'either'
p893
sS'become'
p894
S'becom'
p895
sS'security'
p896
S'secur'
p897
sS'accessible'
p898
S'access'
p899
sS'because'
p900
S'becaus'
p901
sS'[electrical]'
p902
S'[electrical]'
p903
sS'people'
p904
S'peopl'
p905
sS'absolutely'
p906
S'absolut'
p907
sS'spring'
p908
S'spring'
p909
sS'back'
p910
S'back'
p911
sS'specified'
p912
S'specifi'
p913
sS'employment'
p914
S'employ'
p915
sS'recognition'
p916
S'recognit'
p917
sS'provided'
p918
S'provid'
p919
sS'lead'
p920
S'lead'
p921
sS'broadband'
p922
S'broadband'
p923
sS'decision'
p924
S'decis'
p925
sS'legal'
p926
S'legal'
p927
sS'(sby)'
p928
S'(sby)'
p929
sS'hinder'
p930
S'hinder'
p931
sS'be'
p932
S'be'
p933
sS'run'
p934
S'run'
p935
sS'scientific'
p936
S'scientif'
p937
sS'business'
p938
S'busi'
p939
sS'agreement'
p940
S'agreement'
p941
sS'host'
p942
S'host'
p943
sS'bolt'
p944
S'bolt'
p945
sS'post'
p946
S'post'
p947
sS'by'
p948
S'by'
p949
sS'faith'
p950
S'faith'
p951
sS'limitation'
p952
S'limit'
p953
sS'goods'
p954
S'good'
p955
sS'socket'
p956
S'socket'
p957
sS'of'
p958
S'of'
p959
sS'industry'
p960
S'industri'
p961
sS'mrs.'
p962
S'mrs.'
p963
sS'act'
p964
S'act'
p965
sS'compose'
p966
S'compos'
p967
sS'warranty'
p968
S'warranti'
p969
sS'seeing'
p970
S'see'
p971
sS'own'
p972
S'own'
p973
sS'instruments'
p974
S'instrument'
p975
sS'into'
p976
S'into'
p977
sS'within'
p978
S'within'
p979
sS"world's"
p980
S"world'"
p981
sS'down'
p982
S'down'
p983
sS'education-'
p984
S'education-'
p985
sS'right'
p986
S'right'
p987
sS'sow'
p988
S'sow'
p989
sS'registration'
p990
S'registr'
p991
sS'additional'
p992
S'addit'
p993
sS'her'
p994
S'her'
p995
sS'whom'
p996
S'whom'
p997
sS'artifacts'
p998
S'artifact'
p999
sS'support'
p1000
S'support'
p1001
sS'legislation'
p1002
S'legisl'
p1003
sS'custom'
p1004
S'custom'
p1005
sS'occupy'
p1006
S'occupi'
p1007
sS'authorized'
p1008
S'author'
p1009
sS'way'
p1010
S'way'
p1011
sS'resolute'
p1012
S'resolut'
p1013
sS'forward'
p1014
S'forward'
p1015
sS'decisive'
p1016
S'decis'
p1017
sS'rightful'
p1018
S'right'
p1019
sS'was'
p1020
S'wa'
p1021
sS'function'
p1022
S'function'
p1023
sS'head'
p1024
S'head'
p1025
sS'nourish'
p1026
S'nourish'
p1027
sS'interest'
p1028
S'interest'
p1029
sS'form'
p1030
S'form'
p1031
sS'regard'
p1032
S'regard'
p1033
sS'but'
p1034
S'but'
p1035
sS'technician'
p1036
S'technician'
p1037
sS'promote'
p1038
S'promot'
p1039
sS'with'
p1040
S'with'
p1041
sS'eat'
p1042
S'eat'
p1043
sS'he'
p1044
S'he'
p1045
sS'made'
p1046
S'made'
p1047
sS'whether'
p1048
S'whether'
p1049
sS'wish'
p1050
S'wish'
p1051
sS'inside'
p1052
S'insid'
p1053
sS'up'
p1054
S'up'
p1055
sS'us'
p1056
S'us'
p1057
sS'below'
p1058
S'below'
p1059
sS'unanimous'
p1060
S'unanim'
p1061
sS'etc.'
p1062
S'etc.'
p1063
sS'&quot;matter&quot;'
p1064
S'&quot;matter&quot;'
p1065
sS'steady'
p1066
S'steadi'
p1067
sS'measure'
p1068
S'measur'
p1069
sS'am'
p1070
S'am'
p1071
sS'sales'
p1072
S'sale'
p1073
sS'an'
p1074
S'an'
p1075
sS'as'
p1076
S'as'
p1077
sS'at'
p1078
S'at'
p1079
sS'education'
p1080
S'educ'
p1081
sS'check'
p1082
S'check'
p1083
sS'again'
p1084
S'again'
p1085
sS'nn'
p1086
S'nn'
p1087
sS'stake'
p1088
S'stake'
p1089
sS'generally'
p1090
S'gener'
p1091
sS'application'
p1092
S'applic'
p1093
sS'other'
p1094
S'other'
p1095
sS'transport'
p1096
S'transport'
p1097
sS'you'
p1098
S'you'
p1099
sS'conclusion'
p1100
S'conclus'
p1101
sS'standardize'
p1102
S'standard'
p1103
sS'users'
p1104
S'user'
p1105
sS'shelter'
p1106
S'shelter'
p1107
sS'chance'
p1108
S'chanc'
p1109
sS'conclusive'
p1110
S'conclus'
p1111
sS'arouse'
p1112
S'arous'
p1113
sS'for'
p1114
S'for'
p1115
sS'wife'
p1116
S'wife'
p1117
sS'together'
p1118
S'togeth'
p1119
sS'withhold'
p1120
S'withhold'
p1121
s.